
/root/ysyx-workbench/am-kernels/kernels/demo/build/demo-riscv32e-nemu.elf:     file format elf32-littleriscv


Disassembly of section .text:

80000000 <_start>:
80000000:	00000413          	li	s0,0
80000004:	00015117          	auipc	sp,0x15
80000008:	ffc10113          	addi	sp,sp,-4 # 80015000 <_end>
8000000c:	378030ef          	jal	ra,80003384 <_trm_init>

80000010 <galton>:
80000010:	fa410113          	addi	sp,sp,-92
80000014:	04b10793          	addi	a5,sp,75
80000018:	ff87f793          	andi	a5,a5,-8
8000001c:	02c10593          	addi	a1,sp,44
80000020:	00900513          	li	a0,9
80000024:	00f12a23          	sw	a5,20(sp)
80000028:	04112c23          	sw	ra,88(sp)
8000002c:	04812a23          	sw	s0,84(sp)
80000030:	04912823          	sw	s1,80(sp)
80000034:	460030ef          	jal	ra,80003494 <ioe_read>
80000038:	03412683          	lw	a3,52(sp)
8000003c:	03200713          	li	a4,50
80000040:	41f6d793          	srai	a5,a3,0x1f
80000044:	0037f793          	andi	a5,a5,3
80000048:	00d787b3          	add	a5,a5,a3
8000004c:	4027d793          	srai	a5,a5,0x2
80000050:	ffe78793          	addi	a5,a5,-2
80000054:	6cf75c63          	bge	a4,a5,8000072c <galton+0x71c>
80000058:	0000c797          	auipc	a5,0xc
8000005c:	3e478793          	addi	a5,a5,996 # 8000c43c <h>
80000060:	00f12823          	sw	a5,16(sp)
80000064:	00e7a023          	sw	a4,0(a5)
80000068:	00000413          	li	s0,0
8000006c:	00009497          	auipc	s1,0x9
80000070:	a9c48493          	addi	s1,s1,-1380 # 80008b08 <buf.3>
80000074:	14000793          	li	a5,320
80000078:	02f12c23          	sw	a5,56(sp)
8000007c:	02c10593          	addi	a1,sp,44
80000080:	00100793          	li	a5,1
80000084:	00b00513          	li	a0,11
80000088:	02812823          	sw	s0,48(sp)
8000008c:	02f12e23          	sw	a5,60(sp)
80000090:	02012623          	sw	zero,44(sp)
80000094:	02912a23          	sw	s1,52(sp)
80000098:	04010023          	sb	zero,64(sp)
8000009c:	414030ef          	jal	ra,800034b0 <ioe_write>
800000a0:	00140413          	addi	s0,s0,1
800000a4:	0c800793          	li	a5,200
800000a8:	fcf416e3          	bne	s0,a5,80000074 <galton+0x64>
800000ac:	01012783          	lw	a5,16(sp)
800000b0:	0007a483          	lw	s1,0(a5)
800000b4:	00449613          	slli	a2,s1,0x4
800000b8:	00960633          	add	a2,a2,s1
800000bc:	00060513          	mv	a0,a2
800000c0:	00c12023          	sw	a2,0(sp)
800000c4:	1bd030ef          	jal	ra,80003a80 <malloc>
800000c8:	00012603          	lw	a2,0(sp)
800000cc:	0000c797          	auipc	a5,0xc
800000d0:	36878793          	addi	a5,a5,872 # 8000c434 <b>
800000d4:	02000593          	li	a1,32
800000d8:	00a7a023          	sw	a0,0(a5)
800000dc:	00050413          	mv	s0,a0
800000e0:	205030ef          	jal	ra,80003ae4 <memset>
800000e4:	00002537          	lui	a0,0x2
800000e8:	199030ef          	jal	ra,80003a80 <malloc>
800000ec:	00001737          	lui	a4,0x1
800000f0:	00e50733          	add	a4,a0,a4
800000f4:	0000c697          	auipc	a3,0xc
800000f8:	35068693          	addi	a3,a3,848 # 8000c444 <x>
800000fc:	0000c797          	auipc	a5,0xc
80000100:	34c78793          	addi	a5,a5,844 # 8000c448 <y>
80000104:	00a6a023          	sw	a0,0(a3)
80000108:	00e7a023          	sw	a4,0(a5)
8000010c:	02240413          	addi	s0,s0,34
80000110:	00000593          	li	a1,0
80000114:	00000613          	li	a2,0
80000118:	02a00693          	li	a3,42
8000011c:	ff800513          	li	a0,-8
80000120:	ffe5f713          	andi	a4,a1,-2
80000124:	00a40313          	addi	t1,s0,10
80000128:	00840793          	addi	a5,s0,8
8000012c:	00670733          	add	a4,a4,t1
80000130:	00d78023          	sb	a3,0(a5)
80000134:	00278793          	addi	a5,a5,2
80000138:	fef71ce3          	bne	a4,a5,80000130 <galton+0x120>
8000013c:	fff60613          	addi	a2,a2,-1
80000140:	00258593          	addi	a1,a1,2
80000144:	02140413          	addi	s0,s0,33
80000148:	fca61ce3          	bne	a2,a0,80000120 <galton+0x110>
8000014c:	1e905463          	blez	s1,80000334 <galton+0x324>
80000150:	00012423          	sw	zero,8(sp)
80000154:	00012623          	sw	zero,12(sp)
80000158:	00009497          	auipc	s1,0x9
8000015c:	9b048493          	addi	s1,s1,-1616 # 80008b08 <buf.3>
80000160:	00c12783          	lw	a5,12(sp)
80000164:	00012023          	sw	zero,0(sp)
80000168:	00279793          	slli	a5,a5,0x2
8000016c:	00f12223          	sw	a5,4(sp)
80000170:	0000c797          	auipc	a5,0xc
80000174:	2c478793          	addi	a5,a5,708 # 8000c434 <b>
80000178:	00812603          	lw	a2,8(sp)
8000017c:	0007a783          	lw	a5,0(a5)
80000180:	00008717          	auipc	a4,0x8
80000184:	72370713          	addi	a4,a4,1827 # 800088a3 <last_c.2>
80000188:	02a00693          	li	a3,42
8000018c:	00c787b3          	add	a5,a5,a2
80000190:	00012603          	lw	a2,0(sp)
80000194:	00074703          	lbu	a4,0(a4)
80000198:	00c787b3          	add	a5,a5,a2
8000019c:	0007c783          	lbu	a5,0(a5)
800001a0:	3ad78063          	beq	a5,a3,80000540 <galton+0x530>
800001a4:	0ae78463          	beq	a5,a4,8000024c <galton+0x23c>
800001a8:	00008717          	auipc	a4,0x8
800001ac:	6fb70713          	addi	a4,a4,1787 # 800088a3 <last_c.2>
800001b0:	00f70023          	sb	a5,0(a4)
800001b4:	02000693          	li	a3,32
800001b8:	00000713          	li	a4,0
800001bc:	06d78e63          	beq	a5,a3,80000238 <galton+0x228>
800001c0:	01900713          	li	a4,25
800001c4:	02e7d733          	divu	a4,a5,a4
800001c8:	00500693          	li	a3,5
800001cc:	00371613          	slli	a2,a4,0x3
800001d0:	40e60633          	sub	a2,a2,a4
800001d4:	00561593          	slli	a1,a2,0x5
800001d8:	00b60633          	add	a2,a2,a1
800001dc:	00c787b3          	add	a5,a5,a2
800001e0:	0ff7f793          	zext.b	a5,a5
800001e4:	02d7d633          	divu	a2,a5,a3
800001e8:	00871713          	slli	a4,a4,0x8
800001ec:	00261593          	slli	a1,a2,0x2
800001f0:	00b605b3          	add	a1,a2,a1
800001f4:	00861613          	slli	a2,a2,0x8
800001f8:	02d64633          	div	a2,a2,a3
800001fc:	40b787b3          	sub	a5,a5,a1
80000200:	0ff7f793          	zext.b	a5,a5
80000204:	00879793          	slli	a5,a5,0x8
80000208:	00ff05b7          	lui	a1,0xff0
8000020c:	02d74733          	div	a4,a4,a3
80000210:	02d7c7b3          	div	a5,a5,a3
80000214:	00861693          	slli	a3,a2,0x8
80000218:	00010637          	lui	a2,0x10
8000021c:	01071713          	slli	a4,a4,0x10
80000220:	fff60613          	addi	a2,a2,-1 # ffff <_entry_offset+0xffff>
80000224:	00b77733          	and	a4,a4,a1
80000228:	00c6f6b3          	and	a3,a3,a2
8000022c:	00d76733          	or	a4,a4,a3
80000230:	0ff7f793          	zext.b	a5,a5
80000234:	00f76733          	or	a4,a4,a5
80000238:	00009797          	auipc	a5,0x9
8000023c:	89078793          	addi	a5,a5,-1904 # 80008ac8 <buf.1>
80000240:	00e7a023          	sw	a4,0(a5)
80000244:	00478793          	addi	a5,a5,4
80000248:	fef49ce3          	bne	s1,a5,80000240 <galton+0x230>
8000024c:	00012783          	lw	a5,0(sp)
80000250:	00400713          	li	a4,4
80000254:	02c10593          	addi	a1,sp,44
80000258:	00379413          	slli	s0,a5,0x3
8000025c:	00412783          	lw	a5,4(sp)
80000260:	00b00513          	li	a0,11
80000264:	02e12c23          	sw	a4,56(sp)
80000268:	02f12823          	sw	a5,48(sp)
8000026c:	00009797          	auipc	a5,0x9
80000270:	85c78793          	addi	a5,a5,-1956 # 80008ac8 <buf.1>
80000274:	02f12a23          	sw	a5,52(sp)
80000278:	02e12e23          	sw	a4,60(sp)
8000027c:	02812623          	sw	s0,44(sp)
80000280:	04010023          	sb	zero,64(sp)
80000284:	22c030ef          	jal	ra,800034b0 <ioe_write>
80000288:	00008797          	auipc	a5,0x8
8000028c:	61b78793          	addi	a5,a5,1563 # 800088a3 <last_c.2>
80000290:	0007c703          	lbu	a4,0(a5)
80000294:	02000793          	li	a5,32
80000298:	02f70463          	beq	a4,a5,800002c0 <galton+0x2b0>
8000029c:	02000713          	li	a4,32
800002a0:	00008797          	auipc	a5,0x8
800002a4:	60378793          	addi	a5,a5,1539 # 800088a3 <last_c.2>
800002a8:	00e78023          	sb	a4,0(a5)
800002ac:	00009717          	auipc	a4,0x9
800002b0:	81c70713          	addi	a4,a4,-2020 # 80008ac8 <buf.1>
800002b4:	00072023          	sw	zero,0(a4)
800002b8:	00470713          	addi	a4,a4,4
800002bc:	fee49ce3          	bne	s1,a4,800002b4 <galton+0x2a4>
800002c0:	00440793          	addi	a5,s0,4
800002c4:	02f12623          	sw	a5,44(sp)
800002c8:	00412783          	lw	a5,4(sp)
800002cc:	00400713          	li	a4,4
800002d0:	02c10593          	addi	a1,sp,44
800002d4:	02f12823          	sw	a5,48(sp)
800002d8:	00008797          	auipc	a5,0x8
800002dc:	7f078793          	addi	a5,a5,2032 # 80008ac8 <buf.1>
800002e0:	02f12a23          	sw	a5,52(sp)
800002e4:	00012783          	lw	a5,0(sp)
800002e8:	00b00513          	li	a0,11
800002ec:	02e12c23          	sw	a4,56(sp)
800002f0:	00178793          	addi	a5,a5,1
800002f4:	00078413          	mv	s0,a5
800002f8:	00f12023          	sw	a5,0(sp)
800002fc:	02e12e23          	sw	a4,60(sp)
80000300:	04010023          	sb	zero,64(sp)
80000304:	1ac030ef          	jal	ra,800034b0 <ioe_write>
80000308:	01100793          	li	a5,17
8000030c:	e6f412e3          	bne	s0,a5,80000170 <galton+0x160>
80000310:	01012783          	lw	a5,16(sp)
80000314:	00c12703          	lw	a4,12(sp)
80000318:	00812683          	lw	a3,8(sp)
8000031c:	0007a783          	lw	a5,0(a5)
80000320:	00170713          	addi	a4,a4,1
80000324:	01168693          	addi	a3,a3,17
80000328:	00e12623          	sw	a4,12(sp)
8000032c:	00d12423          	sw	a3,8(sp)
80000330:	e2f748e3          	blt	a4,a5,80000160 <galton+0x150>
80000334:	00100793          	li	a5,1
80000338:	00b00513          	li	a0,11
8000033c:	02c10593          	addi	a1,sp,44
80000340:	04f10023          	sb	a5,64(sp)
80000344:	02012623          	sw	zero,44(sp)
80000348:	02012823          	sw	zero,48(sp)
8000034c:	02012a23          	sw	zero,52(sp)
80000350:	02012c23          	sw	zero,56(sp)
80000354:	02012e23          	sw	zero,60(sp)
80000358:	158030ef          	jal	ra,800034b0 <ioe_write>
8000035c:	01412403          	lw	s0,20(sp)
80000360:	00600513          	li	a0,6
80000364:	000014b7          	lui	s1,0x1
80000368:	00040593          	mv	a1,s0
8000036c:	128030ef          	jal	ra,80003494 <ioe_read>
80000370:	00042783          	lw	a5,0(s0)
80000374:	00442703          	lw	a4,4(s0)
80000378:	77048493          	addi	s1,s1,1904 # 1770 <_entry_offset+0x1770>
8000037c:	009784b3          	add	s1,a5,s1
80000380:	00f4b7b3          	sltu	a5,s1,a5
80000384:	00040693          	mv	a3,s0
80000388:	00e78433          	add	s0,a5,a4
8000038c:	00912023          	sw	s1,0(sp)
80000390:	00040493          	mv	s1,s0
80000394:	00068413          	mv	s0,a3
80000398:	00040593          	mv	a1,s0
8000039c:	00600513          	li	a0,6
800003a0:	0f4030ef          	jal	ra,80003494 <ioe_read>
800003a4:	00442783          	lw	a5,4(s0)
800003a8:	00042683          	lw	a3,0(s0)
800003ac:	fe97e6e3          	bltu	a5,s1,80000398 <galton+0x388>
800003b0:	00f49663          	bne	s1,a5,800003bc <galton+0x3ac>
800003b4:	00012783          	lw	a5,0(sp)
800003b8:	fef6e0e3          	bltu	a3,a5,80000398 <galton+0x388>
800003bc:	0000c797          	auipc	a5,0xc
800003c0:	07c78793          	addi	a5,a5,124 # 8000c438 <cnt>
800003c4:	0007a403          	lw	s0,0(a5)
800003c8:	14805863          	blez	s0,80000518 <galton+0x508>
800003cc:	00000393          	li	t2,0
800003d0:	0000c797          	auipc	a5,0xc
800003d4:	07878793          	addi	a5,a5,120 # 8000c448 <y>
800003d8:	0007a783          	lw	a5,0(a5)
800003dc:	00239613          	slli	a2,t2,0x2
800003e0:	0000c717          	auipc	a4,0xc
800003e4:	06470713          	addi	a4,a4,100 # 8000c444 <x>
800003e8:	00072703          	lw	a4,0(a4)
800003ec:	00c787b3          	add	a5,a5,a2
800003f0:	0007a683          	lw	a3,0(a5)
800003f4:	00c70733          	add	a4,a4,a2
800003f8:	00072483          	lw	s1,0(a4)
800003fc:	1006c463          	bltz	a3,80000504 <galton+0x4f4>
80000400:	01012603          	lw	a2,16(sp)
80000404:	00062603          	lw	a2,0(a2)
80000408:	fff60613          	addi	a2,a2,-1
8000040c:	18c68863          	beq	a3,a2,8000059c <galton+0x58c>
80000410:	00168313          	addi	t1,a3,1
80000414:	0000c617          	auipc	a2,0xc
80000418:	02060613          	addi	a2,a2,32 # 8000c434 <b>
8000041c:	00062583          	lw	a1,0(a2)
80000420:	00431413          	slli	s0,t1,0x4
80000424:	00640433          	add	s0,s0,t1
80000428:	00848633          	add	a2,s1,s0
8000042c:	00c58633          	add	a2,a1,a2
80000430:	00064283          	lbu	t0,0(a2)
80000434:	fef40513          	addi	a0,s0,-17
80000438:	00a12023          	sw	a0,0(sp)
8000043c:	02000093          	li	ra,32
80000440:	00a48533          	add	a0,s1,a0
80000444:	22128a63          	beq	t0,ra,80000678 <galton+0x668>
80000448:	02a00093          	li	ra,42
8000044c:	00300313          	li	t1,3
80000450:	00129463          	bne	t0,ra,80000458 <galton+0x448>
80000454:	00100313          	li	t1,1
80000458:	00f00293          	li	t0,15
8000045c:	1092da63          	bge	t0,s1,80000570 <galton+0x560>
80000460:	00a582b3          	add	t0,a1,a0
80000464:	fff2c083          	lbu	ra,-1(t0)
80000468:	02000413          	li	s0,32
8000046c:	10809c63          	bne	ra,s0,80000584 <galton+0x574>
80000470:	fff64603          	lbu	a2,-1(a2)
80000474:	02000513          	li	a0,32
80000478:	00000413          	li	s0,0
8000047c:	32a61263          	bne	a2,a0,800007a0 <galton+0x790>
80000480:	02712223          	sw	t2,36(sp)
80000484:	02512023          	sw	t0,32(sp)
80000488:	00d12e23          	sw	a3,28(sp)
8000048c:	00612c23          	sw	t1,24(sp)
80000490:	00b12623          	sw	a1,12(sp)
80000494:	00f12423          	sw	a5,8(sp)
80000498:	00e12223          	sw	a4,4(sp)
8000049c:	5b0030ef          	jal	ra,80003a4c <rand>
800004a0:	01812303          	lw	t1,24(sp)
800004a4:	00412703          	lw	a4,4(sp)
800004a8:	00812783          	lw	a5,8(sp)
800004ac:	02656633          	rem	a2,a0,t1
800004b0:	00c12583          	lw	a1,12(sp)
800004b4:	01c12683          	lw	a3,28(sp)
800004b8:	02012283          	lw	t0,32(sp)
800004bc:	02412383          	lw	t2,36(sp)
800004c0:	14061e63          	bnez	a2,8000061c <galton+0x60c>
800004c4:	0007a303          	lw	t1,0(a5)
800004c8:	00072603          	lw	a2,0(a4)
800004cc:	fff48493          	addi	s1,s1,-1
800004d0:	00431513          	slli	a0,t1,0x4
800004d4:	00650533          	add	a0,a0,t1
800004d8:	00c50533          	add	a0,a0,a2
800004dc:	00012603          	lw	a2,0(sp)
800004e0:	00a58533          	add	a0,a1,a0
800004e4:	02000313          	li	t1,32
800004e8:	00c48433          	add	s0,s1,a2
800004ec:	00054603          	lbu	a2,0(a0) # 2000 <_entry_offset+0x2000>
800004f0:	00650023          	sb	t1,0(a0)
800004f4:	00d7a023          	sw	a3,0(a5)
800004f8:	00972023          	sw	s1,0(a4)
800004fc:	008585b3          	add	a1,a1,s0
80000500:	00c58023          	sb	a2,0(a1) # ff0000 <_entry_offset+0xff0000>
80000504:	0000c797          	auipc	a5,0xc
80000508:	f3478793          	addi	a5,a5,-204 # 8000c438 <cnt>
8000050c:	0007a403          	lw	s0,0(a5)
80000510:	00138393          	addi	t2,t2,1
80000514:	ea83cee3          	blt	t2,s0,800003d0 <galton+0x3c0>
80000518:	0000c697          	auipc	a3,0xc
8000051c:	f2868693          	addi	a3,a3,-216 # 8000c440 <step.0>
80000520:	0006a783          	lw	a5,0(a3)
80000524:	00200713          	li	a4,2
80000528:	00178793          	addi	a5,a5,1
8000052c:	00f6a023          	sw	a5,0(a3)
80000530:	16e78e63          	beq	a5,a4,800006ac <galton+0x69c>
80000534:	01012783          	lw	a5,16(sp)
80000538:	0007a483          	lw	s1,0(a5)
8000053c:	c11ff06f          	j	8000014c <galton+0x13c>
80000540:	d0f706e3          	beq	a4,a5,8000024c <galton+0x23c>
80000544:	00008717          	auipc	a4,0x8
80000548:	35f70713          	addi	a4,a4,863 # 800088a3 <last_c.2>
8000054c:	00f70023          	sb	a5,0(a4)
80000550:	0033a737          	lui	a4,0x33a
80000554:	00008797          	auipc	a5,0x8
80000558:	57478793          	addi	a5,a5,1396 # 80008ac8 <buf.1>
8000055c:	96670713          	addi	a4,a4,-1690 # 339966 <_entry_offset+0x339966>
80000560:	00e7a023          	sw	a4,0(a5)
80000564:	00478793          	addi	a5,a5,4
80000568:	cef482e3          	beq	s1,a5,8000024c <galton+0x23c>
8000056c:	ff5ff06f          	j	80000560 <galton+0x550>
80000570:	00a582b3          	add	t0,a1,a0
80000574:	0012c083          	lbu	ra,1(t0)
80000578:	02000413          	li	s0,32
8000057c:	04808063          	beq	ra,s0,800005bc <galton+0x5ac>
80000580:	ee0492e3          	bnez	s1,80000464 <galton+0x454>
80000584:	00a58533          	add	a0,a1,a0
80000588:	00054683          	lbu	a3,0(a0)
8000058c:	02000613          	li	a2,32
80000590:	00c50023          	sb	a2,0(a0)
80000594:	00972023          	sw	s1,0(a4)
80000598:	00d28023          	sb	a3,0(t0)
8000059c:	fff00713          	li	a4,-1
800005a0:	00e7a023          	sw	a4,0(a5)
800005a4:	0000c797          	auipc	a5,0xc
800005a8:	e9478793          	addi	a5,a5,-364 # 8000c438 <cnt>
800005ac:	0007a403          	lw	s0,0(a5)
800005b0:	00138393          	addi	t2,t2,1
800005b4:	e083cee3          	blt	t2,s0,800003d0 <galton+0x3c0>
800005b8:	f61ff06f          	j	80000518 <galton+0x508>
800005bc:	00164083          	lbu	ra,1(a2)
800005c0:	02000413          	li	s0,32
800005c4:	fa809ee3          	bne	ra,s0,80000580 <galton+0x570>
800005c8:	02712423          	sw	t2,40(sp)
800005cc:	02512223          	sw	t0,36(sp)
800005d0:	02c12023          	sw	a2,32(sp)
800005d4:	00d12e23          	sw	a3,28(sp)
800005d8:	00612c23          	sw	t1,24(sp)
800005dc:	00b12623          	sw	a1,12(sp)
800005e0:	00f12423          	sw	a5,8(sp)
800005e4:	00e12223          	sw	a4,4(sp)
800005e8:	464030ef          	jal	ra,80003a4c <rand>
800005ec:	01812303          	lw	t1,24(sp)
800005f0:	00412703          	lw	a4,4(sp)
800005f4:	00c12583          	lw	a1,12(sp)
800005f8:	02656533          	rem	a0,a0,t1
800005fc:	01c12683          	lw	a3,28(sp)
80000600:	02012603          	lw	a2,32(sp)
80000604:	02412283          	lw	t0,36(sp)
80000608:	02812383          	lw	t2,40(sp)
8000060c:	00153793          	seqz	a5,a0
80000610:	00078413          	mv	s0,a5
80000614:	00812783          	lw	a5,8(sp)
80000618:	1a049663          	bnez	s1,800007c4 <galton+0x7b4>
8000061c:	0007a503          	lw	a0,0(a5)
80000620:	00072303          	lw	t1,0(a4)
80000624:	00451613          	slli	a2,a0,0x4
80000628:	00a60533          	add	a0,a2,a0
8000062c:	00650533          	add	a0,a0,t1
80000630:	f4040ae3          	beqz	s0,80000584 <galton+0x574>
80000634:	00012603          	lw	a2,0(sp)
80000638:	00a58533          	add	a0,a1,a0
8000063c:	00148493          	addi	s1,s1,1
80000640:	02000313          	li	t1,32
80000644:	00c48433          	add	s0,s1,a2
80000648:	00054603          	lbu	a2,0(a0)
8000064c:	00650023          	sb	t1,0(a0)
80000650:	00d7a023          	sw	a3,0(a5)
80000654:	0000c797          	auipc	a5,0xc
80000658:	de478793          	addi	a5,a5,-540 # 8000c438 <cnt>
8000065c:	008585b3          	add	a1,a1,s0
80000660:	0007a403          	lw	s0,0(a5)
80000664:	00972023          	sw	s1,0(a4)
80000668:	00c58023          	sb	a2,0(a1)
8000066c:	00138393          	addi	t2,t2,1
80000670:	d683c0e3          	blt	t2,s0,800003d0 <galton+0x3c0>
80000674:	ea5ff06f          	j	80000518 <galton+0x508>
80000678:	00a58533          	add	a0,a1,a0
8000067c:	02000593          	li	a1,32
80000680:	00054683          	lbu	a3,0(a0)
80000684:	00b50023          	sb	a1,0(a0)
80000688:	0067a023          	sw	t1,0(a5)
8000068c:	0000c797          	auipc	a5,0xc
80000690:	dac78793          	addi	a5,a5,-596 # 8000c438 <cnt>
80000694:	0007a403          	lw	s0,0(a5)
80000698:	00972023          	sw	s1,0(a4)
8000069c:	00d60023          	sb	a3,0(a2)
800006a0:	00138393          	addi	t2,t2,1
800006a4:	d283c6e3          	blt	t2,s0,800003d0 <galton+0x3c0>
800006a8:	e71ff06f          	j	80000518 <galton+0x508>
800006ac:	3ff00793          	li	a5,1023
800006b0:	e887c2e3          	blt	a5,s0,80000534 <galton+0x524>
800006b4:	0000c797          	auipc	a5,0xc
800006b8:	d9078793          	addi	a5,a5,-624 # 8000c444 <x>
800006bc:	0007a503          	lw	a0,0(a5)
800006c0:	0000c797          	auipc	a5,0xc
800006c4:	d8878793          	addi	a5,a5,-632 # 8000c448 <y>
800006c8:	0007a483          	lw	s1,0(a5)
800006cc:	00241713          	slli	a4,s0,0x2
800006d0:	00e507b3          	add	a5,a0,a4
800006d4:	00800693          	li	a3,8
800006d8:	00d7a023          	sw	a3,0(a5)
800006dc:	00e484b3          	add	s1,s1,a4
800006e0:	0004a023          	sw	zero,0(s1)
800006e4:	0000c717          	auipc	a4,0xc
800006e8:	d5070713          	addi	a4,a4,-688 # 8000c434 <b>
800006ec:	00072683          	lw	a3,0(a4)
800006f0:	0007a703          	lw	a4,0(a5)
800006f4:	0000c617          	auipc	a2,0xc
800006f8:	d4062623          	sw	zero,-692(a2) # 8000c440 <step.0>
800006fc:	02000613          	li	a2,32
80000700:	00e68733          	add	a4,a3,a4
80000704:	00074703          	lbu	a4,0(a4)
80000708:	04c70463          	beq	a4,a2,80000750 <galton+0x740>
8000070c:	00068493          	mv	s1,a3
80000710:	3d0030ef          	jal	ra,80003ae0 <free>
80000714:	05412403          	lw	s0,84(sp)
80000718:	05812083          	lw	ra,88(sp)
8000071c:	00048513          	mv	a0,s1
80000720:	05012483          	lw	s1,80(sp)
80000724:	05c10113          	addi	sp,sp,92
80000728:	3b80306f          	j	80003ae0 <free>
8000072c:	01d00713          	li	a4,29
80000730:	08f74063          	blt	a4,a5,800007b0 <galton+0x7a0>
80000734:	0000c797          	auipc	a5,0xc
80000738:	d0878793          	addi	a5,a5,-760 # 8000c43c <h>
8000073c:	00078713          	mv	a4,a5
80000740:	00f12823          	sw	a5,16(sp)
80000744:	01e00793          	li	a5,30
80000748:	00f72023          	sw	a5,0(a4)
8000074c:	91dff06f          	j	80000068 <galton+0x58>
80000750:	00d12223          	sw	a3,4(sp)
80000754:	00f12023          	sw	a5,0(sp)
80000758:	2f4030ef          	jal	ra,80003a4c <rand>
8000075c:	05000613          	li	a2,80
80000760:	02c56733          	rem	a4,a0,a2
80000764:	00012783          	lw	a5,0(sp)
80000768:	0004a603          	lw	a2,0(s1)
8000076c:	00412683          	lw	a3,4(sp)
80000770:	0007a583          	lw	a1,0(a5)
80000774:	00461793          	slli	a5,a2,0x4
80000778:	00c787b3          	add	a5,a5,a2
8000077c:	00f687b3          	add	a5,a3,a5
80000780:	00140413          	addi	s0,s0,1
80000784:	00b787b3          	add	a5,a5,a1
80000788:	0000c697          	auipc	a3,0xc
8000078c:	cb068693          	addi	a3,a3,-848 # 8000c438 <cnt>
80000790:	0086a023          	sw	s0,0(a3)
80000794:	02b70713          	addi	a4,a4,43
80000798:	00e78023          	sb	a4,0(a5)
8000079c:	d99ff06f          	j	80000534 <galton+0x524>
800007a0:	01100513          	li	a0,17
800007a4:	02d50533          	mul	a0,a0,a3
800007a8:	00950533          	add	a0,a0,s1
800007ac:	dd9ff06f          	j	80000584 <galton+0x574>
800007b0:	0000c717          	auipc	a4,0xc
800007b4:	c8c70713          	addi	a4,a4,-884 # 8000c43c <h>
800007b8:	00e12823          	sw	a4,16(sp)
800007bc:	00f72023          	sw	a5,0(a4)
800007c0:	8a9ff06f          	j	80000068 <galton+0x58>
800007c4:	fff2c503          	lbu	a0,-1(t0)
800007c8:	02000093          	li	ra,32
800007cc:	e41518e3          	bne	a0,ra,8000061c <galton+0x60c>
800007d0:	fff64603          	lbu	a2,-1(a2)
800007d4:	02000513          	li	a0,32
800007d8:	00130313          	addi	t1,t1,1
800007dc:	e4a610e3          	bne	a2,a0,8000061c <galton+0x60c>
800007e0:	ca1ff06f          	j	80000480 <galton+0x470>

800007e4 <aclock>:
800007e4:	fc010113          	addi	sp,sp,-64
800007e8:	02f10793          	addi	a5,sp,47
800007ec:	ff87f793          	andi	a5,a5,-8
800007f0:	02912a23          	sw	s1,52(sp)
800007f4:	02112e23          	sw	ra,60(sp)
800007f8:	02812c23          	sw	s0,56(sp)
800007fc:	00f12623          	sw	a5,12(sp)
80000800:	00009497          	auipc	s1,0x9
80000804:	84848493          	addi	s1,s1,-1976 # 80009048 <buf.2>
80000808:	01010593          	addi	a1,sp,16
8000080c:	00500513          	li	a0,5
80000810:	485020ef          	jal	ra,80003494 <ioe_read>
80000814:	01c12783          	lw	a5,28(sp)
80000818:	00000413          	li	s0,0
8000081c:	00f12023          	sw	a5,0(sp)
80000820:	02012783          	lw	a5,32(sp)
80000824:	00f12223          	sw	a5,4(sp)
80000828:	02412783          	lw	a5,36(sp)
8000082c:	00f12423          	sw	a5,8(sp)
80000830:	00009797          	auipc	a5,0x9
80000834:	81878793          	addi	a5,a5,-2024 # 80009048 <buf.2>
80000838:	00f12c23          	sw	a5,24(sp)
8000083c:	14000793          	li	a5,320
80000840:	00f12e23          	sw	a5,28(sp)
80000844:	01010593          	addi	a1,sp,16
80000848:	00100793          	li	a5,1
8000084c:	00b00513          	li	a0,11
80000850:	00812a23          	sw	s0,20(sp)
80000854:	02f12023          	sw	a5,32(sp)
80000858:	00012823          	sw	zero,16(sp)
8000085c:	02010223          	sb	zero,36(sp)
80000860:	451020ef          	jal	ra,800034b0 <ioe_write>
80000864:	00140413          	addi	s0,s0,1
80000868:	0c800793          	li	a5,200
8000086c:	fcf412e3          	bne	s0,a5,80000830 <aclock+0x4c>
80000870:	00003417          	auipc	s0,0x3
80000874:	2fc40413          	addi	s0,s0,764 # 80003b6c <_etext+0xc>
80000878:	06f00793          	li	a5,111
8000087c:	00c00613          	li	a2,12
80000880:	03e00693          	li	a3,62
80000884:	00008717          	auipc	a4,0x8
80000888:	02170713          	addi	a4,a4,33 # 800088a5 <last_c.1>
8000088c:	ff068693          	addi	a3,a3,-16
80000890:	00074583          	lbu	a1,0(a4)
80000894:	01f6d713          	srli	a4,a3,0x1f
80000898:	00d70733          	add	a4,a4,a3
8000089c:	0ff7f793          	zext.b	a5,a5
800008a0:	40175713          	srai	a4,a4,0x1
800008a4:	0af58463          	beq	a1,a5,8000094c <aclock+0x168>
800008a8:	00008697          	auipc	a3,0x8
800008ac:	ffd68693          	addi	a3,a3,-3 # 800088a5 <last_c.1>
800008b0:	00f68023          	sb	a5,0(a3)
800008b4:	02000593          	li	a1,32
800008b8:	00000693          	li	a3,0
800008bc:	06b78e63          	beq	a5,a1,80000938 <aclock+0x154>
800008c0:	01900693          	li	a3,25
800008c4:	02d7d6b3          	divu	a3,a5,a3
800008c8:	00500593          	li	a1,5
800008cc:	00369513          	slli	a0,a3,0x3
800008d0:	40d50533          	sub	a0,a0,a3
800008d4:	00551313          	slli	t1,a0,0x5
800008d8:	00650533          	add	a0,a0,t1
800008dc:	00a787b3          	add	a5,a5,a0
800008e0:	0ff7f793          	zext.b	a5,a5
800008e4:	02b7d533          	divu	a0,a5,a1
800008e8:	00869693          	slli	a3,a3,0x8
800008ec:	00251313          	slli	t1,a0,0x2
800008f0:	00650333          	add	t1,a0,t1
800008f4:	00851513          	slli	a0,a0,0x8
800008f8:	02b54533          	div	a0,a0,a1
800008fc:	406787b3          	sub	a5,a5,t1
80000900:	0ff7f793          	zext.b	a5,a5
80000904:	00879793          	slli	a5,a5,0x8
80000908:	00ff0337          	lui	t1,0xff0
8000090c:	02b6c6b3          	div	a3,a3,a1
80000910:	02b7c7b3          	div	a5,a5,a1
80000914:	00851593          	slli	a1,a0,0x8
80000918:	00010537          	lui	a0,0x10
8000091c:	01069693          	slli	a3,a3,0x10
80000920:	fff50513          	addi	a0,a0,-1 # ffff <_entry_offset+0xffff>
80000924:	0066f6b3          	and	a3,a3,t1
80000928:	00a5f5b3          	and	a1,a1,a0
8000092c:	00b6e6b3          	or	a3,a3,a1
80000930:	0ff7f793          	zext.b	a5,a5
80000934:	00f6e6b3          	or	a3,a3,a5
80000938:	00008797          	auipc	a5,0x8
8000093c:	6d078793          	addi	a5,a5,1744 # 80009008 <buf.0>
80000940:	00d7a023          	sw	a3,0(a5)
80000944:	00478793          	addi	a5,a5,4
80000948:	fe979ce3          	bne	a5,s1,80000940 <aclock+0x15c>
8000094c:	00271713          	slli	a4,a4,0x2
80000950:	00400793          	li	a5,4
80000954:	00261613          	slli	a2,a2,0x2
80000958:	00e12823          	sw	a4,16(sp)
8000095c:	01010593          	addi	a1,sp,16
80000960:	00008717          	auipc	a4,0x8
80000964:	6a870713          	addi	a4,a4,1704 # 80009008 <buf.0>
80000968:	00b00513          	li	a0,11
8000096c:	00f12e23          	sw	a5,28(sp)
80000970:	02f12023          	sw	a5,32(sp)
80000974:	00c12a23          	sw	a2,20(sp)
80000978:	00e12c23          	sw	a4,24(sp)
8000097c:	02010223          	sb	zero,36(sp)
80000980:	331020ef          	jal	ra,800034b0 <ioe_write>
80000984:	00003797          	auipc	a5,0x3
80000988:	4ac78793          	addi	a5,a5,1196 # 80003e30 <hour>
8000098c:	00878c63          	beq	a5,s0,800009a4 <aclock+0x1c0>
80000990:	00042683          	lw	a3,0(s0)
80000994:	00442603          	lw	a2,4(s0)
80000998:	00842783          	lw	a5,8(s0)
8000099c:	00c40413          	addi	s0,s0,12
800009a0:	ee5ff06f          	j	80000884 <aclock+0xa0>
800009a4:	00012703          	lw	a4,0(sp)
800009a8:	00c00793          	li	a5,12
800009ac:	2ee7da63          	bge	a5,a4,80000ca0 <aclock+0x4bc>
800009b0:	ff470713          	addi	a4,a4,-12
800009b4:	00271793          	slli	a5,a4,0x2
800009b8:	00e787b3          	add	a5,a5,a4
800009bc:	00412683          	lw	a3,4(sp)
800009c0:	00a00713          	li	a4,10
800009c4:	02e6c733          	div	a4,a3,a4
800009c8:	00f70733          	add	a4,a4,a5
800009cc:	00171793          	slli	a5,a4,0x1
800009d0:	00e787b3          	add	a5,a5,a4
800009d4:	00479793          	slli	a5,a5,0x4
800009d8:	00003717          	auipc	a4,0x3
800009dc:	45870713          	addi	a4,a4,1112 # 80003e30 <hour>
800009e0:	00f70433          	add	s0,a4,a5
800009e4:	00003717          	auipc	a4,0x3
800009e8:	47c70713          	addi	a4,a4,1148 # 80003e60 <hour+0x30>
800009ec:	00f707b3          	add	a5,a4,a5
800009f0:	00f12023          	sw	a5,0(sp)
800009f4:	00042703          	lw	a4,0(s0)
800009f8:	00008797          	auipc	a5,0x8
800009fc:	ead78793          	addi	a5,a5,-339 # 800088a5 <last_c.1>
80000a00:	0007c503          	lbu	a0,0(a5)
80000a04:	ff070713          	addi	a4,a4,-16
80000a08:	01f75793          	srli	a5,a4,0x1f
80000a0c:	00e787b3          	add	a5,a5,a4
80000a10:	4017d693          	srai	a3,a5,0x1
80000a14:	06800793          	li	a5,104
80000a18:	00442583          	lw	a1,4(s0)
80000a1c:	02f50863          	beq	a0,a5,80000a4c <aclock+0x268>
80000a20:	00008797          	auipc	a5,0x8
80000a24:	e8578793          	addi	a5,a5,-379 # 800088a5 <last_c.1>
80000a28:	06800713          	li	a4,104
80000a2c:	00e78023          	sb	a4,0(a5)
80000a30:	00cc0737          	lui	a4,0xcc0
80000a34:	00008797          	auipc	a5,0x8
80000a38:	5d478793          	addi	a5,a5,1492 # 80009008 <buf.0>
80000a3c:	0cc70713          	addi	a4,a4,204 # cc00cc <_entry_offset+0xcc00cc>
80000a40:	00e7a023          	sw	a4,0(a5)
80000a44:	00478793          	addi	a5,a5,4
80000a48:	fe979ce3          	bne	a5,s1,80000a40 <aclock+0x25c>
80000a4c:	00269793          	slli	a5,a3,0x2
80000a50:	00400713          	li	a4,4
80000a54:	00259693          	slli	a3,a1,0x2
80000a58:	00f12823          	sw	a5,16(sp)
80000a5c:	01010593          	addi	a1,sp,16
80000a60:	00008797          	auipc	a5,0x8
80000a64:	5a878793          	addi	a5,a5,1448 # 80009008 <buf.0>
80000a68:	00b00513          	li	a0,11
80000a6c:	00f12c23          	sw	a5,24(sp)
80000a70:	00d12a23          	sw	a3,20(sp)
80000a74:	00e12e23          	sw	a4,28(sp)
80000a78:	02e12023          	sw	a4,32(sp)
80000a7c:	02010223          	sb	zero,36(sp)
80000a80:	231020ef          	jal	ra,800034b0 <ioe_write>
80000a84:	00012783          	lw	a5,0(sp)
80000a88:	00840413          	addi	s0,s0,8
80000a8c:	f68794e3          	bne	a5,s0,800009f4 <aclock+0x210>
80000a90:	00412783          	lw	a5,4(sp)
80000a94:	00004717          	auipc	a4,0x4
80000a98:	edc70713          	addi	a4,a4,-292 # 80004970 <minute>
80000a9c:	00679793          	slli	a5,a5,0x6
80000aa0:	00f70433          	add	s0,a4,a5
80000aa4:	00004717          	auipc	a4,0x4
80000aa8:	f0c70713          	addi	a4,a4,-244 # 800049b0 <minute+0x40>
80000aac:	00f707b3          	add	a5,a4,a5
80000ab0:	00f12023          	sw	a5,0(sp)
80000ab4:	00042703          	lw	a4,0(s0)
80000ab8:	00008797          	auipc	a5,0x8
80000abc:	ded78793          	addi	a5,a5,-531 # 800088a5 <last_c.1>
80000ac0:	0007c503          	lbu	a0,0(a5)
80000ac4:	ff070713          	addi	a4,a4,-16
80000ac8:	01f75793          	srli	a5,a4,0x1f
80000acc:	00e787b3          	add	a5,a5,a4
80000ad0:	4017d693          	srai	a3,a5,0x1
80000ad4:	04d00793          	li	a5,77
80000ad8:	00442583          	lw	a1,4(s0)
80000adc:	02f50863          	beq	a0,a5,80000b0c <aclock+0x328>
80000ae0:	00008797          	auipc	a5,0x8
80000ae4:	dc578793          	addi	a5,a5,-571 # 800088a5 <last_c.1>
80000ae8:	04d00713          	li	a4,77
80000aec:	00e78023          	sb	a4,0(a5)
80000af0:	00990737          	lui	a4,0x990
80000af4:	00008797          	auipc	a5,0x8
80000af8:	51478793          	addi	a5,a5,1300 # 80009008 <buf.0>
80000afc:	06670713          	addi	a4,a4,102 # 990066 <_entry_offset+0x990066>
80000b00:	00e7a023          	sw	a4,0(a5)
80000b04:	00478793          	addi	a5,a5,4
80000b08:	fef49ce3          	bne	s1,a5,80000b00 <aclock+0x31c>
80000b0c:	00269793          	slli	a5,a3,0x2
80000b10:	00400713          	li	a4,4
80000b14:	00259693          	slli	a3,a1,0x2
80000b18:	00f12823          	sw	a5,16(sp)
80000b1c:	01010593          	addi	a1,sp,16
80000b20:	00008797          	auipc	a5,0x8
80000b24:	4e878793          	addi	a5,a5,1256 # 80009008 <buf.0>
80000b28:	00b00513          	li	a0,11
80000b2c:	00f12c23          	sw	a5,24(sp)
80000b30:	00d12a23          	sw	a3,20(sp)
80000b34:	00e12e23          	sw	a4,28(sp)
80000b38:	02e12023          	sw	a4,32(sp)
80000b3c:	02010223          	sb	zero,36(sp)
80000b40:	171020ef          	jal	ra,800034b0 <ioe_write>
80000b44:	00012783          	lw	a5,0(sp)
80000b48:	00840413          	addi	s0,s0,8
80000b4c:	f6f414e3          	bne	s0,a5,80000ab4 <aclock+0x2d0>
80000b50:	00812783          	lw	a5,8(sp)
80000b54:	00004717          	auipc	a4,0x4
80000b58:	e1c70713          	addi	a4,a4,-484 # 80004970 <minute>
80000b5c:	00679793          	slli	a5,a5,0x6
80000b60:	00f70433          	add	s0,a4,a5
80000b64:	00004717          	auipc	a4,0x4
80000b68:	e4c70713          	addi	a4,a4,-436 # 800049b0 <minute+0x40>
80000b6c:	00f707b3          	add	a5,a4,a5
80000b70:	00f12023          	sw	a5,0(sp)
80000b74:	00042703          	lw	a4,0(s0)
80000b78:	00008797          	auipc	a5,0x8
80000b7c:	d2d78793          	addi	a5,a5,-723 # 800088a5 <last_c.1>
80000b80:	0007c503          	lbu	a0,0(a5)
80000b84:	ff070713          	addi	a4,a4,-16
80000b88:	01f75793          	srli	a5,a4,0x1f
80000b8c:	00e787b3          	add	a5,a5,a4
80000b90:	4017d693          	srai	a3,a5,0x1
80000b94:	02e00793          	li	a5,46
80000b98:	00442583          	lw	a1,4(s0)
80000b9c:	02f50863          	beq	a0,a5,80000bcc <aclock+0x3e8>
80000ba0:	00008797          	auipc	a5,0x8
80000ba4:	d0578793          	addi	a5,a5,-763 # 800088a5 <last_c.1>
80000ba8:	02e00713          	li	a4,46
80000bac:	00e78023          	sb	a4,0(a5)
80000bb0:	0033d737          	lui	a4,0x33d
80000bb4:	00008797          	auipc	a5,0x8
80000bb8:	45478793          	addi	a5,a5,1108 # 80009008 <buf.0>
80000bbc:	c3370713          	addi	a4,a4,-973 # 33cc33 <_entry_offset+0x33cc33>
80000bc0:	00e7a023          	sw	a4,0(a5)
80000bc4:	00478793          	addi	a5,a5,4
80000bc8:	fef49ce3          	bne	s1,a5,80000bc0 <aclock+0x3dc>
80000bcc:	00269793          	slli	a5,a3,0x2
80000bd0:	00400713          	li	a4,4
80000bd4:	00259693          	slli	a3,a1,0x2
80000bd8:	00f12823          	sw	a5,16(sp)
80000bdc:	01010593          	addi	a1,sp,16
80000be0:	00008797          	auipc	a5,0x8
80000be4:	42878793          	addi	a5,a5,1064 # 80009008 <buf.0>
80000be8:	00b00513          	li	a0,11
80000bec:	00f12c23          	sw	a5,24(sp)
80000bf0:	00d12a23          	sw	a3,20(sp)
80000bf4:	00e12e23          	sw	a4,28(sp)
80000bf8:	02e12023          	sw	a4,32(sp)
80000bfc:	02010223          	sb	zero,36(sp)
80000c00:	0b1020ef          	jal	ra,800034b0 <ioe_write>
80000c04:	00012783          	lw	a5,0(sp)
80000c08:	00840413          	addi	s0,s0,8
80000c0c:	f68794e3          	bne	a5,s0,80000b74 <aclock+0x390>
80000c10:	00100793          	li	a5,1
80000c14:	00b00513          	li	a0,11
80000c18:	01010593          	addi	a1,sp,16
80000c1c:	02f10223          	sb	a5,36(sp)
80000c20:	00012823          	sw	zero,16(sp)
80000c24:	00012a23          	sw	zero,20(sp)
80000c28:	00012c23          	sw	zero,24(sp)
80000c2c:	00012e23          	sw	zero,28(sp)
80000c30:	02012023          	sw	zero,32(sp)
80000c34:	07d020ef          	jal	ra,800034b0 <ioe_write>
80000c38:	00c12403          	lw	s0,12(sp)
80000c3c:	00600513          	li	a0,6
80000c40:	00040593          	mv	a1,s0
80000c44:	051020ef          	jal	ra,80003494 <ioe_read>
80000c48:	00042783          	lw	a5,0(s0)
80000c4c:	000f4737          	lui	a4,0xf4
80000c50:	00442683          	lw	a3,4(s0)
80000c54:	24070713          	addi	a4,a4,576 # f4240 <_entry_offset+0xf4240>
80000c58:	00e78733          	add	a4,a5,a4
80000c5c:	00f737b3          	sltu	a5,a4,a5
80000c60:	00040613          	mv	a2,s0
80000c64:	00d78433          	add	s0,a5,a3
80000c68:	00812023          	sw	s0,0(sp)
80000c6c:	00e12223          	sw	a4,4(sp)
80000c70:	00060413          	mv	s0,a2
80000c74:	00040593          	mv	a1,s0
80000c78:	00600513          	li	a0,6
80000c7c:	019020ef          	jal	ra,80003494 <ioe_read>
80000c80:	00442783          	lw	a5,4(s0)
80000c84:	00012703          	lw	a4,0(sp)
80000c88:	00042683          	lw	a3,0(s0)
80000c8c:	fee7e4e3          	bltu	a5,a4,80000c74 <aclock+0x490>
80000c90:	b6f71ce3          	bne	a4,a5,80000808 <aclock+0x24>
80000c94:	00412783          	lw	a5,4(sp)
80000c98:	fcf6eee3          	bltu	a3,a5,80000c74 <aclock+0x490>
80000c9c:	b6dff06f          	j	80000808 <aclock+0x24>
80000ca0:	00012703          	lw	a4,0(sp)
80000ca4:	00271793          	slli	a5,a4,0x2
80000ca8:	00e787b3          	add	a5,a5,a4
80000cac:	d11ff06f          	j	800009bc <aclock+0x1d8>

80000cb0 <show>:
80000cb0:	00008797          	auipc	a5,0x8
80000cb4:	c0478793          	addi	a5,a5,-1020 # 800088b4 <w>
80000cb8:	0007a783          	lw	a5,0(a5)
80000cbc:	fc810113          	addi	sp,sp,-56
80000cc0:	02812823          	sw	s0,48(sp)
80000cc4:	02912623          	sw	s1,44(sp)
80000cc8:	02112a23          	sw	ra,52(sp)
80000ccc:	00f12023          	sw	a5,0(sp)
80000cd0:	00a12223          	sw	a0,4(sp)
80000cd4:	00000413          	li	s0,0
80000cd8:	00009497          	auipc	s1,0x9
80000cdc:	8b048493          	addi	s1,s1,-1872 # 80009588 <buf.2>
80000ce0:	14000793          	li	a5,320
80000ce4:	02f12023          	sw	a5,32(sp)
80000ce8:	01410593          	addi	a1,sp,20
80000cec:	00100793          	li	a5,1
80000cf0:	00b00513          	li	a0,11
80000cf4:	00812c23          	sw	s0,24(sp)
80000cf8:	02f12223          	sw	a5,36(sp)
80000cfc:	00012a23          	sw	zero,20(sp)
80000d00:	00912e23          	sw	s1,28(sp)
80000d04:	02010423          	sb	zero,40(sp)
80000d08:	7a8020ef          	jal	ra,800034b0 <ioe_write>
80000d0c:	00140413          	addi	s0,s0,1
80000d10:	0c800793          	li	a5,200
80000d14:	fcf416e3          	bne	s0,a5,80000ce0 <show+0x30>
80000d18:	00008797          	auipc	a5,0x8
80000d1c:	b9478793          	addi	a5,a5,-1132 # 800088ac <h>
80000d20:	0007a783          	lw	a5,0(a5)
80000d24:	10f05a63          	blez	a5,80000e38 <show+0x188>
80000d28:	00012783          	lw	a5,0(sp)
80000d2c:	00012423          	sw	zero,8(sp)
80000d30:	00279793          	slli	a5,a5,0x2
80000d34:	00f12823          	sw	a5,16(sp)
80000d38:	00412783          	lw	a5,4(sp)
80000d3c:	00f12623          	sw	a5,12(sp)
80000d40:	00008797          	auipc	a5,0x8
80000d44:	b7478793          	addi	a5,a5,-1164 # 800088b4 <w>
80000d48:	0007a783          	lw	a5,0(a5)
80000d4c:	0cf05063          	blez	a5,80000e0c <show+0x15c>
80000d50:	00812783          	lw	a5,8(sp)
80000d54:	00c12303          	lw	t1,12(sp)
80000d58:	00000493          	li	s1,0
80000d5c:	00279793          	slli	a5,a5,0x2
80000d60:	00f12223          	sw	a5,4(sp)
80000d64:	00009417          	auipc	s0,0x9
80000d68:	82440413          	addi	s0,s0,-2012 # 80009588 <buf.2>
80000d6c:	00032783          	lw	a5,0(t1) # ff0000 <_entry_offset+0xff0000>
80000d70:	00008717          	auipc	a4,0x8
80000d74:	b3670713          	addi	a4,a4,-1226 # 800088a6 <last_c.1>
80000d78:	00074703          	lbu	a4,0(a4)
80000d7c:	0e078c63          	beqz	a5,80000e74 <show+0x1c4>
80000d80:	06f00793          	li	a5,111
80000d84:	02f70863          	beq	a4,a5,80000db4 <show+0x104>
80000d88:	00cc6737          	lui	a4,0xcc6
80000d8c:	06f00793          	li	a5,111
80000d90:	63370713          	addi	a4,a4,1587 # cc6633 <_entry_offset+0xcc6633>
80000d94:	00008697          	auipc	a3,0x8
80000d98:	b1268693          	addi	a3,a3,-1262 # 800088a6 <last_c.1>
80000d9c:	00f68023          	sb	a5,0(a3)
80000da0:	00008797          	auipc	a5,0x8
80000da4:	7a878793          	addi	a5,a5,1960 # 80009548 <buf.0>
80000da8:	00e7a023          	sw	a4,0(a5)
80000dac:	00478793          	addi	a5,a5,4
80000db0:	fef41ce3          	bne	s0,a5,80000da8 <show+0xf8>
80000db4:	00249713          	slli	a4,s1,0x2
80000db8:	00e12a23          	sw	a4,20(sp)
80000dbc:	00412703          	lw	a4,4(sp)
80000dc0:	00400793          	li	a5,4
80000dc4:	01410593          	addi	a1,sp,20
80000dc8:	00e12c23          	sw	a4,24(sp)
80000dcc:	00b00513          	li	a0,11
80000dd0:	00008717          	auipc	a4,0x8
80000dd4:	77870713          	addi	a4,a4,1912 # 80009548 <buf.0>
80000dd8:	00612023          	sw	t1,0(sp)
80000ddc:	02f12023          	sw	a5,32(sp)
80000de0:	02f12223          	sw	a5,36(sp)
80000de4:	00e12e23          	sw	a4,28(sp)
80000de8:	02010423          	sb	zero,40(sp)
80000dec:	6c4020ef          	jal	ra,800034b0 <ioe_write>
80000df0:	00008797          	auipc	a5,0x8
80000df4:	ac478793          	addi	a5,a5,-1340 # 800088b4 <w>
80000df8:	00012303          	lw	t1,0(sp)
80000dfc:	0007a783          	lw	a5,0(a5)
80000e00:	00148493          	addi	s1,s1,1
80000e04:	00430313          	addi	t1,t1,4
80000e08:	f6f4c2e3          	blt	s1,a5,80000d6c <show+0xbc>
80000e0c:	00812703          	lw	a4,8(sp)
80000e10:	00c12683          	lw	a3,12(sp)
80000e14:	01012603          	lw	a2,16(sp)
80000e18:	00008797          	auipc	a5,0x8
80000e1c:	a9478793          	addi	a5,a5,-1388 # 800088ac <h>
80000e20:	0007a783          	lw	a5,0(a5)
80000e24:	00170713          	addi	a4,a4,1
80000e28:	00c686b3          	add	a3,a3,a2
80000e2c:	00e12423          	sw	a4,8(sp)
80000e30:	00d12623          	sw	a3,12(sp)
80000e34:	f0f746e3          	blt	a4,a5,80000d40 <show+0x90>
80000e38:	01410593          	addi	a1,sp,20
80000e3c:	00100793          	li	a5,1
80000e40:	00b00513          	li	a0,11
80000e44:	00012a23          	sw	zero,20(sp)
80000e48:	00012c23          	sw	zero,24(sp)
80000e4c:	00012e23          	sw	zero,28(sp)
80000e50:	02012023          	sw	zero,32(sp)
80000e54:	02012223          	sw	zero,36(sp)
80000e58:	02f10423          	sb	a5,40(sp)
80000e5c:	654020ef          	jal	ra,800034b0 <ioe_write>
80000e60:	03412083          	lw	ra,52(sp)
80000e64:	03012403          	lw	s0,48(sp)
80000e68:	02c12483          	lw	s1,44(sp)
80000e6c:	03810113          	addi	sp,sp,56
80000e70:	00008067          	ret
80000e74:	02000793          	li	a5,32
80000e78:	f2f70ee3          	beq	a4,a5,80000db4 <show+0x104>
80000e7c:	00000713          	li	a4,0
80000e80:	f15ff06f          	j	80000d94 <show+0xe4>

80000e84 <evolve>:
80000e84:	fd010113          	addi	sp,sp,-48
80000e88:	02812623          	sw	s0,44(sp)
80000e8c:	02912423          	sw	s1,40(sp)
80000e90:	00008397          	auipc	t2,0x8
80000e94:	a1c3a383          	lw	t2,-1508(t2) # 800088ac <h>
80000e98:	00a12023          	sw	a0,0(sp)
80000e9c:	00008317          	auipc	t1,0x8
80000ea0:	a1832303          	lw	t1,-1512(t1) # 800088b4 <w>
80000ea4:	0000b797          	auipc	a5,0xb
80000ea8:	5a87a783          	lw	a5,1448(a5) # 8000c44c <new_array>
80000eac:	14705a63          	blez	t2,80001000 <evolve+0x17c>
80000eb0:	fff38693          	addi	a3,t2,-1
80000eb4:	00139713          	slli	a4,t2,0x1
80000eb8:	00d12623          	sw	a3,12(sp)
80000ebc:	00012683          	lw	a3,0(sp)
80000ec0:	00078613          	mv	a2,a5
80000ec4:	fff70713          	addi	a4,a4,-1
80000ec8:	02f12223          	sw	a5,36(sp)
80000ecc:	00130793          	addi	a5,t1,1
80000ed0:	00e12e23          	sw	a4,28(sp)
80000ed4:	00179713          	slli	a4,a5,0x1
80000ed8:	00231413          	slli	s0,t1,0x2
80000edc:	02d12023          	sw	a3,32(sp)
80000ee0:	00e12823          	sw	a4,16(sp)
80000ee4:	00d12c23          	sw	a3,24(sp)
80000ee8:	00c12a23          	sw	a2,20(sp)
80000eec:	00712223          	sw	t2,4(sp)
80000ef0:	08605e63          	blez	t1,80000f8c <evolve+0x108>
80000ef4:	01412783          	lw	a5,20(sp)
80000ef8:	01812483          	lw	s1,24(sp)
80000efc:	00230513          	addi	a0,t1,2
80000f00:	00f12423          	sw	a5,8(sp)
80000f04:	00c12783          	lw	a5,12(sp)
80000f08:	fff30293          	addi	t0,t1,-1
80000f0c:	00378393          	addi	t2,a5,3
80000f10:	00c12583          	lw	a1,12(sp)
80000f14:	00000613          	li	a2,0
80000f18:	00412783          	lw	a5,4(sp)
80000f1c:	00028713          	mv	a4,t0
80000f20:	02f5e6b3          	rem	a3,a1,a5
80000f24:	00012783          	lw	a5,0(sp)
80000f28:	028686b3          	mul	a3,a3,s0
80000f2c:	00d786b3          	add	a3,a5,a3
80000f30:	026767b3          	rem	a5,a4,t1
80000f34:	00170713          	addi	a4,a4,1
80000f38:	00279793          	slli	a5,a5,0x2
80000f3c:	00f687b3          	add	a5,a3,a5
80000f40:	0007a783          	lw	a5,0(a5)
80000f44:	00f037b3          	snez	a5,a5
80000f48:	00f60633          	add	a2,a2,a5
80000f4c:	fea712e3          	bne	a4,a0,80000f30 <evolve+0xac>
80000f50:	00158593          	addi	a1,a1,1
80000f54:	fc7592e3          	bne	a1,t2,80000f18 <evolve+0x94>
80000f58:	0004a783          	lw	a5,0(s1)
80000f5c:	0a079a63          	bnez	a5,80001010 <evolve+0x18c>
80000f60:	ffd60793          	addi	a5,a2,-3
80000f64:	0017b793          	seqz	a5,a5
80000f68:	00812703          	lw	a4,8(sp)
80000f6c:	00150513          	addi	a0,a0,1
80000f70:	00448493          	addi	s1,s1,4
80000f74:	00f72023          	sw	a5,0(a4)
80000f78:	00470793          	addi	a5,a4,4
80000f7c:	00f12423          	sw	a5,8(sp)
80000f80:	01012783          	lw	a5,16(sp)
80000f84:	00128293          	addi	t0,t0,1
80000f88:	f8f514e3          	bne	a0,a5,80000f10 <evolve+0x8c>
80000f8c:	01412703          	lw	a4,20(sp)
80000f90:	00c12783          	lw	a5,12(sp)
80000f94:	00870733          	add	a4,a4,s0
80000f98:	00e12a23          	sw	a4,20(sp)
80000f9c:	01812703          	lw	a4,24(sp)
80000fa0:	00178793          	addi	a5,a5,1
80000fa4:	00f12623          	sw	a5,12(sp)
80000fa8:	00870733          	add	a4,a4,s0
80000fac:	00e12c23          	sw	a4,24(sp)
80000fb0:	01c12703          	lw	a4,28(sp)
80000fb4:	f2e79ee3          	bne	a5,a4,80000ef0 <evolve+0x6c>
80000fb8:	00412383          	lw	t2,4(sp)
80000fbc:	02012503          	lw	a0,32(sp)
80000fc0:	02412283          	lw	t0,36(sp)
80000fc4:	00000593          	li	a1,0
80000fc8:	00050693          	mv	a3,a0
80000fcc:	00028713          	mv	a4,t0
80000fd0:	00000793          	li	a5,0
80000fd4:	00605e63          	blez	t1,80000ff0 <evolve+0x16c>
80000fd8:	00072603          	lw	a2,0(a4)
80000fdc:	00178793          	addi	a5,a5,1
80000fe0:	00470713          	addi	a4,a4,4
80000fe4:	00c6a023          	sw	a2,0(a3)
80000fe8:	00468693          	addi	a3,a3,4
80000fec:	fef316e3          	bne	t1,a5,80000fd8 <evolve+0x154>
80000ff0:	00158593          	addi	a1,a1,1
80000ff4:	008282b3          	add	t0,t0,s0
80000ff8:	00850533          	add	a0,a0,s0
80000ffc:	fc7596e3          	bne	a1,t2,80000fc8 <evolve+0x144>
80001000:	02c12403          	lw	s0,44(sp)
80001004:	02812483          	lw	s1,40(sp)
80001008:	03010113          	addi	sp,sp,48
8000100c:	00008067          	ret
80001010:	fff60713          	addi	a4,a2,-1
80001014:	00300693          	li	a3,3
80001018:	00100793          	li	a5,1
8000101c:	f4d706e3          	beq	a4,a3,80000f68 <evolve+0xe4>
80001020:	ffd60613          	addi	a2,a2,-3
80001024:	00163793          	seqz	a5,a2
80001028:	f41ff06f          	j	80000f68 <evolve+0xe4>

8000102c <game_of_life>:
8000102c:	fbc10113          	addi	sp,sp,-68
80001030:	03310793          	addi	a5,sp,51
80001034:	01c10593          	addi	a1,sp,28
80001038:	00900513          	li	a0,9
8000103c:	04112023          	sw	ra,64(sp)
80001040:	02812e23          	sw	s0,60(sp)
80001044:	02912c23          	sw	s1,56(sp)
80001048:	ff87f493          	andi	s1,a5,-8
8000104c:	448020ef          	jal	ra,80003494 <ioe_read>
80001050:	02012683          	lw	a3,32(sp)
80001054:	01c10593          	addi	a1,sp,28
80001058:	00008417          	auipc	s0,0x8
8000105c:	85c40413          	addi	s0,s0,-1956 # 800088b4 <w>
80001060:	41f6d713          	srai	a4,a3,0x1f
80001064:	00377713          	andi	a4,a4,3
80001068:	00d70733          	add	a4,a4,a3
8000106c:	40275713          	srai	a4,a4,0x2
80001070:	00900513          	li	a0,9
80001074:	00e42023          	sw	a4,0(s0)
80001078:	41c020ef          	jal	ra,80003494 <ioe_read>
8000107c:	02412703          	lw	a4,36(sp)
80001080:	00042783          	lw	a5,0(s0)
80001084:	41f75413          	srai	s0,a4,0x1f
80001088:	00347413          	andi	s0,s0,3
8000108c:	00e40433          	add	s0,s0,a4
80001090:	00e12c23          	sw	a4,24(sp)
80001094:	40245713          	srai	a4,s0,0x2
80001098:	00078413          	mv	s0,a5
8000109c:	00f12a23          	sw	a5,20(sp)
800010a0:	00e12623          	sw	a4,12(sp)
800010a4:	00070793          	mv	a5,a4
800010a8:	02e40733          	mul	a4,s0,a4
800010ac:	00008697          	auipc	a3,0x8
800010b0:	80f6a023          	sw	a5,-2048(a3) # 800088ac <h>
800010b4:	00271713          	slli	a4,a4,0x2
800010b8:	00070513          	mv	a0,a4
800010bc:	00e12023          	sw	a4,0(sp)
800010c0:	1c1020ef          	jal	ra,80003a80 <malloc>
800010c4:	00012703          	lw	a4,0(sp)
800010c8:	00050793          	mv	a5,a0
800010cc:	00a12223          	sw	a0,4(sp)
800010d0:	00070513          	mv	a0,a4
800010d4:	0000b717          	auipc	a4,0xb
800010d8:	36f72e23          	sw	a5,892(a4) # 8000c450 <univ_array>
800010dc:	1a5020ef          	jal	ra,80003a80 <malloc>
800010e0:	0000b717          	auipc	a4,0xb
800010e4:	36a72623          	sw	a0,876(a4) # 8000c44c <new_array>
800010e8:	06805c63          	blez	s0,80001160 <game_of_life+0x134>
800010ec:	00241793          	slli	a5,s0,0x2
800010f0:	00f12423          	sw	a5,8(sp)
800010f4:	00012823          	sw	zero,16(sp)
800010f8:	01012783          	lw	a5,16(sp)
800010fc:	00300693          	li	a3,3
80001100:	00000413          	li	s0,0
80001104:	00279713          	slli	a4,a5,0x2
80001108:	00412783          	lw	a5,4(sp)
8000110c:	00e78733          	add	a4,a5,a4
80001110:	01812783          	lw	a5,24(sp)
80001114:	02f6dc63          	bge	a3,a5,8000114c <game_of_life+0x120>
80001118:	00e12023          	sw	a4,0(sp)
8000111c:	131020ef          	jal	ra,80003a4c <rand>
80001120:	01f55613          	srli	a2,a0,0x1f
80001124:	00012703          	lw	a4,0(sp)
80001128:	00812783          	lw	a5,8(sp)
8000112c:	00c50533          	add	a0,a0,a2
80001130:	00157513          	andi	a0,a0,1
80001134:	40c50533          	sub	a0,a0,a2
80001138:	00a72023          	sw	a0,0(a4)
8000113c:	00f70733          	add	a4,a4,a5
80001140:	00c12783          	lw	a5,12(sp)
80001144:	00140413          	addi	s0,s0,1
80001148:	fcf448e3          	blt	s0,a5,80001118 <game_of_life+0xec>
8000114c:	01012783          	lw	a5,16(sp)
80001150:	01412703          	lw	a4,20(sp)
80001154:	00178793          	addi	a5,a5,1
80001158:	00f12823          	sw	a5,16(sp)
8000115c:	f8f71ee3          	bne	a4,a5,800010f8 <game_of_life+0xcc>
80001160:	00031737          	lui	a4,0x31
80001164:	d4070793          	addi	a5,a4,-704 # 30d40 <_entry_offset+0x30d40>
80001168:	00f12423          	sw	a5,8(sp)
8000116c:	00412403          	lw	s0,4(sp)
80001170:	00040513          	mv	a0,s0
80001174:	b3dff0ef          	jal	ra,80000cb0 <show>
80001178:	00040513          	mv	a0,s0
8000117c:	d09ff0ef          	jal	ra,80000e84 <evolve>
80001180:	00048593          	mv	a1,s1
80001184:	00600513          	li	a0,6
80001188:	30c020ef          	jal	ra,80003494 <ioe_read>
8000118c:	00812783          	lw	a5,8(sp)
80001190:	0004a403          	lw	s0,0(s1)
80001194:	0044a703          	lw	a4,4(s1)
80001198:	00f407b3          	add	a5,s0,a5
8000119c:	0087b433          	sltu	s0,a5,s0
800011a0:	00f12023          	sw	a5,0(sp)
800011a4:	00e40433          	add	s0,s0,a4
800011a8:	00048593          	mv	a1,s1
800011ac:	00600513          	li	a0,6
800011b0:	2e4020ef          	jal	ra,80003494 <ioe_read>
800011b4:	0044a703          	lw	a4,4(s1)
800011b8:	0004a683          	lw	a3,0(s1)
800011bc:	fe8766e3          	bltu	a4,s0,800011a8 <game_of_life+0x17c>
800011c0:	fae416e3          	bne	s0,a4,8000116c <game_of_life+0x140>
800011c4:	00012783          	lw	a5,0(sp)
800011c8:	fef6e0e3          	bltu	a3,a5,800011a8 <game_of_life+0x17c>
800011cc:	fa1ff06f          	j	8000116c <game_of_life+0x140>

800011d0 <text>:
800011d0:	00459593          	slli	a1,a1,0x4
800011d4:	fcc10113          	addi	sp,sp,-52
800011d8:	00858593          	addi	a1,a1,8
800011dc:	00d12223          	sw	a3,4(sp)
800011e0:	40c586b3          	sub	a3,a1,a2
800011e4:	00800713          	li	a4,8
800011e8:	02112823          	sw	ra,48(sp)
800011ec:	02812623          	sw	s0,44(sp)
800011f0:	02912423          	sw	s1,40(sp)
800011f4:	00d12023          	sw	a3,0(sp)
800011f8:	40a70733          	sub	a4,a4,a0
800011fc:	14060063          	beqz	a2,8000133c <text+0x16c>
80001200:	00271713          	slli	a4,a4,0x2
80001204:	00e12423          	sw	a4,8(sp)
80001208:	00c12623          	sw	a2,12(sp)
8000120c:	00412783          	lw	a5,4(sp)
80001210:	0007c783          	lbu	a5,0(a5)
80001214:	10078c63          	beqz	a5,8000132c <text+0x15c>
80001218:	00012483          	lw	s1,0(sp)
8000121c:	00009417          	auipc	s0,0x9
80001220:	dac40413          	addi	s0,s0,-596 # 80009fc8 <t>
80001224:	00007697          	auipc	a3,0x7
80001228:	68068693          	addi	a3,a3,1664 # 800088a4 <last_c.2>
8000122c:	0006c703          	lbu	a4,0(a3)
80001230:	00148493          	addi	s1,s1,1
80001234:	0af70063          	beq	a4,a5,800012d4 <text+0x104>
80001238:	00f68023          	sb	a5,0(a3)
8000123c:	02000613          	li	a2,32
80001240:	00000713          	li	a4,0
80001244:	06c78e63          	beq	a5,a2,800012c0 <text+0xf0>
80001248:	01900713          	li	a4,25
8000124c:	02e7d733          	divu	a4,a5,a4
80001250:	00500593          	li	a1,5
80001254:	00371613          	slli	a2,a4,0x3
80001258:	40e60633          	sub	a2,a2,a4
8000125c:	00561513          	slli	a0,a2,0x5
80001260:	00a60633          	add	a2,a2,a0
80001264:	00c787b3          	add	a5,a5,a2
80001268:	0ff7f793          	zext.b	a5,a5
8000126c:	02b7d633          	divu	a2,a5,a1
80001270:	00871713          	slli	a4,a4,0x8
80001274:	00261513          	slli	a0,a2,0x2
80001278:	00a60533          	add	a0,a2,a0
8000127c:	40a787b3          	sub	a5,a5,a0
80001280:	00861613          	slli	a2,a2,0x8
80001284:	02b74733          	div	a4,a4,a1
80001288:	0ff7f793          	zext.b	a5,a5
8000128c:	00879793          	slli	a5,a5,0x8
80001290:	00ff0537          	lui	a0,0xff0
80001294:	02b64633          	div	a2,a2,a1
80001298:	01071713          	slli	a4,a4,0x10
8000129c:	00a77733          	and	a4,a4,a0
800012a0:	02b7c7b3          	div	a5,a5,a1
800012a4:	000105b7          	lui	a1,0x10
800012a8:	00861613          	slli	a2,a2,0x8
800012ac:	fff58593          	addi	a1,a1,-1 # ffff <_entry_offset+0xffff>
800012b0:	00b67633          	and	a2,a2,a1
800012b4:	00c76733          	or	a4,a4,a2
800012b8:	0ff7f793          	zext.b	a5,a5
800012bc:	00f76733          	or	a4,a4,a5
800012c0:	00009797          	auipc	a5,0x9
800012c4:	cc878793          	addi	a5,a5,-824 # 80009f88 <buf.1>
800012c8:	00e7a023          	sw	a4,0(a5)
800012cc:	00478793          	addi	a5,a5,4
800012d0:	fe879ce3          	bne	a5,s0,800012c8 <text+0xf8>
800012d4:	00249793          	slli	a5,s1,0x2
800012d8:	ffc78793          	addi	a5,a5,-4
800012dc:	00f12823          	sw	a5,16(sp)
800012e0:	00812783          	lw	a5,8(sp)
800012e4:	00400713          	li	a4,4
800012e8:	01010593          	addi	a1,sp,16
800012ec:	00f12a23          	sw	a5,20(sp)
800012f0:	00b00513          	li	a0,11
800012f4:	00009797          	auipc	a5,0x9
800012f8:	c9478793          	addi	a5,a5,-876 # 80009f88 <buf.1>
800012fc:	00f12c23          	sw	a5,24(sp)
80001300:	00e12e23          	sw	a4,28(sp)
80001304:	02e12023          	sw	a4,32(sp)
80001308:	02010223          	sb	zero,36(sp)
8000130c:	1a4020ef          	jal	ra,800034b0 <ioe_write>
80001310:	00012783          	lw	a5,0(sp)
80001314:	00412703          	lw	a4,4(sp)
80001318:	40f487b3          	sub	a5,s1,a5
8000131c:	00f707b3          	add	a5,a4,a5
80001320:	0007c783          	lbu	a5,0(a5)
80001324:	f00790e3          	bnez	a5,80001224 <text+0x54>
80001328:	00912023          	sw	s1,0(sp)
8000132c:	00c12783          	lw	a5,12(sp)
80001330:	fff78793          	addi	a5,a5,-1
80001334:	00f12623          	sw	a5,12(sp)
80001338:	ec079ae3          	bnez	a5,8000120c <text+0x3c>
8000133c:	03012083          	lw	ra,48(sp)
80001340:	02c12403          	lw	s0,44(sp)
80001344:	02812483          	lw	s1,40(sp)
80001348:	03410113          	addi	sp,sp,52
8000134c:	00008067          	ret

80001350 <add_disk>:
80001350:	00351693          	slli	a3,a0,0x3
80001354:	00a686b3          	add	a3,a3,a0
80001358:	00269693          	slli	a3,a3,0x2
8000135c:	00009797          	auipc	a5,0x9
80001360:	c6c78793          	addi	a5,a5,-916 # 80009fc8 <t>
80001364:	00d787b3          	add	a5,a5,a3
80001368:	0047a683          	lw	a3,4(a5)
8000136c:	00050713          	mv	a4,a0
80001370:	0007a503          	lw	a0,0(a5)
80001374:	fcc10113          	addi	sp,sp,-52
80001378:	02112823          	sw	ra,48(sp)
8000137c:	00168313          	addi	t1,a3,1
80001380:	02812623          	sw	s0,44(sp)
80001384:	02912423          	sw	s1,40(sp)
80001388:	00269693          	slli	a3,a3,0x2
8000138c:	0067a223          	sw	t1,4(a5)
80001390:	00d50533          	add	a0,a0,a3
80001394:	00b52023          	sw	a1,0(a0) # ff0000 <_entry_offset+0xff0000>
80001398:	0047a503          	lw	a0,4(a5)
8000139c:	00058613          	mv	a2,a1
800013a0:	02310793          	addi	a5,sp,35
800013a4:	00004697          	auipc	a3,0x4
800013a8:	4cc68693          	addi	a3,a3,1228 # 80005870 <minute+0xf00>
800013ac:	00070593          	mv	a1,a4
800013b0:	ff87f493          	andi	s1,a5,-8
800013b4:	e1dff0ef          	jal	ra,800011d0 <text>
800013b8:	00100713          	li	a4,1
800013bc:	00b00513          	li	a0,11
800013c0:	00410593          	addi	a1,sp,4
800013c4:	00e10c23          	sb	a4,24(sp)
800013c8:	00012223          	sw	zero,4(sp)
800013cc:	00012423          	sw	zero,8(sp)
800013d0:	00012623          	sw	zero,12(sp)
800013d4:	00012823          	sw	zero,16(sp)
800013d8:	00012a23          	sw	zero,20(sp)
800013dc:	0d4020ef          	jal	ra,800034b0 <ioe_write>
800013e0:	00048593          	mv	a1,s1
800013e4:	00600513          	li	a0,6
800013e8:	0ac020ef          	jal	ra,80003494 <ioe_read>
800013ec:	0004a403          	lw	s0,0(s1)
800013f0:	000187b7          	lui	a5,0x18
800013f4:	0044a703          	lw	a4,4(s1)
800013f8:	6a078793          	addi	a5,a5,1696 # 186a0 <_entry_offset+0x186a0>
800013fc:	00f407b3          	add	a5,s0,a5
80001400:	0087b433          	sltu	s0,a5,s0
80001404:	00f12023          	sw	a5,0(sp)
80001408:	00e40433          	add	s0,s0,a4
8000140c:	00048593          	mv	a1,s1
80001410:	00600513          	li	a0,6
80001414:	080020ef          	jal	ra,80003494 <ioe_read>
80001418:	0044a703          	lw	a4,4(s1)
8000141c:	0004a683          	lw	a3,0(s1)
80001420:	fe8766e3          	bltu	a4,s0,8000140c <add_disk+0xbc>
80001424:	00e41663          	bne	s0,a4,80001430 <add_disk+0xe0>
80001428:	00012783          	lw	a5,0(sp)
8000142c:	fef6e0e3          	bltu	a3,a5,8000140c <add_disk+0xbc>
80001430:	03012083          	lw	ra,48(sp)
80001434:	02c12403          	lw	s0,44(sp)
80001438:	02812483          	lw	s1,40(sp)
8000143c:	03410113          	addi	sp,sp,52
80001440:	00008067          	ret

80001444 <move>:
80001444:	fe810113          	addi	sp,sp,-24
80001448:	00112a23          	sw	ra,20(sp)
8000144c:	00812823          	sw	s0,16(sp)
80001450:	00912623          	sw	s1,12(sp)
80001454:	00c12023          	sw	a2,0(sp)
80001458:	08050e63          	beqz	a0,800014f4 <move+0xb0>
8000145c:	00050493          	mv	s1,a0
80001460:	00058413          	mv	s0,a1
80001464:	00068293          	mv	t0,a3
80001468:	00012683          	lw	a3,0(sp)
8000146c:	fff48493          	addi	s1,s1,-1
80001470:	00028613          	mv	a2,t0
80001474:	00040593          	mv	a1,s0
80001478:	00048513          	mv	a0,s1
8000147c:	00512423          	sw	t0,8(sp)
80001480:	fc5ff0ef          	jal	ra,80001444 <move>
80001484:	00341793          	slli	a5,s0,0x3
80001488:	008787b3          	add	a5,a5,s0
8000148c:	00009717          	auipc	a4,0x9
80001490:	b3c70713          	addi	a4,a4,-1220 # 80009fc8 <t>
80001494:	00279793          	slli	a5,a5,0x2
80001498:	00f707b3          	add	a5,a4,a5
8000149c:	0047a503          	lw	a0,4(a5)
800014a0:	0007a603          	lw	a2,0(a5)
800014a4:	00004697          	auipc	a3,0x4
800014a8:	3d068693          	addi	a3,a3,976 # 80005874 <minute+0xf04>
800014ac:	fff50593          	addi	a1,a0,-1
800014b0:	00259393          	slli	t2,a1,0x2
800014b4:	00b7a223          	sw	a1,4(a5)
800014b8:	007607b3          	add	a5,a2,t2
800014bc:	0007a603          	lw	a2,0(a5)
800014c0:	00040593          	mv	a1,s0
800014c4:	00c12223          	sw	a2,4(sp)
800014c8:	d09ff0ef          	jal	ra,800011d0 <text>
800014cc:	00412603          	lw	a2,4(sp)
800014d0:	00012503          	lw	a0,0(sp)
800014d4:	00060593          	mv	a1,a2
800014d8:	e79ff0ef          	jal	ra,80001350 <add_disk>
800014dc:	00812283          	lw	t0,8(sp)
800014e0:	00028793          	mv	a5,t0
800014e4:	00040293          	mv	t0,s0
800014e8:	00048663          	beqz	s1,800014f4 <move+0xb0>
800014ec:	00078413          	mv	s0,a5
800014f0:	f79ff06f          	j	80001468 <move+0x24>
800014f4:	01412083          	lw	ra,20(sp)
800014f8:	01012403          	lw	s0,16(sp)
800014fc:	00c12483          	lw	s1,12(sp)
80001500:	01810113          	addi	sp,sp,24
80001504:	00008067          	ret

80001508 <hanoi>:
80001508:	fd410113          	addi	sp,sp,-44
8000150c:	02812223          	sw	s0,36(sp)
80001510:	02912023          	sw	s1,32(sp)
80001514:	02112423          	sw	ra,40(sp)
80001518:	00000413          	li	s0,0
8000151c:	00008497          	auipc	s1,0x8
80001520:	56c48493          	addi	s1,s1,1388 # 80009a88 <buf.0>
80001524:	00100713          	li	a4,1
80001528:	14000793          	li	a5,320
8000152c:	00810593          	addi	a1,sp,8
80001530:	00b00513          	li	a0,11
80001534:	00812623          	sw	s0,12(sp)
80001538:	00e12c23          	sw	a4,24(sp)
8000153c:	00012423          	sw	zero,8(sp)
80001540:	00912823          	sw	s1,16(sp)
80001544:	00f12a23          	sw	a5,20(sp)
80001548:	00010e23          	sb	zero,28(sp)
8000154c:	765010ef          	jal	ra,800034b0 <ioe_write>
80001550:	00140413          	addi	s0,s0,1
80001554:	0c800713          	li	a4,200
80001558:	fce416e3          	bne	s0,a4,80001524 <hanoi+0x1c>
8000155c:	00009417          	auipc	s0,0x9
80001560:	a6c40413          	addi	s0,s0,-1428 # 80009fc8 <t>
80001564:	00009497          	auipc	s1,0x9
80001568:	ad048493          	addi	s1,s1,-1328 # 8000a034 <b>
8000156c:	00040513          	mv	a0,s0
80001570:	02400613          	li	a2,36
80001574:	00000593          	li	a1,0
80001578:	56c020ef          	jal	ra,80003ae4 <memset>
8000157c:	00840713          	addi	a4,s0,8
80001580:	00e42023          	sw	a4,0(s0)
80001584:	02440413          	addi	s0,s0,36
80001588:	fe9412e3          	bne	s0,s1,8000156c <hanoi+0x64>
8000158c:	00700493          	li	s1,7
80001590:	00048593          	mv	a1,s1
80001594:	00000513          	li	a0,0
80001598:	fff48493          	addi	s1,s1,-1
8000159c:	db5ff0ef          	jal	ra,80001350 <add_disk>
800015a0:	fe0498e3          	bnez	s1,80001590 <hanoi+0x88>
800015a4:	00100793          	li	a5,1
800015a8:	00700413          	li	s0,7
800015ac:	fff40413          	addi	s0,s0,-1
800015b0:	00078613          	mv	a2,a5
800015b4:	00048593          	mv	a1,s1
800015b8:	00200693          	li	a3,2
800015bc:	00040513          	mv	a0,s0
800015c0:	00f12223          	sw	a5,4(sp)
800015c4:	e81ff0ef          	jal	ra,80001444 <move>
800015c8:	00349713          	slli	a4,s1,0x3
800015cc:	00970733          	add	a4,a4,s1
800015d0:	00009797          	auipc	a5,0x9
800015d4:	9f878793          	addi	a5,a5,-1544 # 80009fc8 <t>
800015d8:	00271713          	slli	a4,a4,0x2
800015dc:	00e78733          	add	a4,a5,a4
800015e0:	00472503          	lw	a0,4(a4)
800015e4:	00072603          	lw	a2,0(a4)
800015e8:	00004697          	auipc	a3,0x4
800015ec:	28c68693          	addi	a3,a3,652 # 80005874 <minute+0xf04>
800015f0:	fff50593          	addi	a1,a0,-1
800015f4:	00259393          	slli	t2,a1,0x2
800015f8:	00b72223          	sw	a1,4(a4)
800015fc:	00760733          	add	a4,a2,t2
80001600:	00072603          	lw	a2,0(a4)
80001604:	00048593          	mv	a1,s1
80001608:	00c12023          	sw	a2,0(sp)
8000160c:	bc5ff0ef          	jal	ra,800011d0 <text>
80001610:	00012603          	lw	a2,0(sp)
80001614:	00200513          	li	a0,2
80001618:	00060593          	mv	a1,a2
8000161c:	d35ff0ef          	jal	ra,80001350 <add_disk>
80001620:	00412783          	lw	a5,4(sp)
80001624:	00078713          	mv	a4,a5
80001628:	00048793          	mv	a5,s1
8000162c:	00040663          	beqz	s0,80001638 <hanoi+0x130>
80001630:	00070493          	mv	s1,a4
80001634:	f79ff06f          	j	800015ac <hanoi+0xa4>
80001638:	02812083          	lw	ra,40(sp)
8000163c:	02412403          	lw	s0,36(sp)
80001640:	02012483          	lw	s1,32(sp)
80001644:	02c10113          	addi	sp,sp,44
80001648:	00008067          	ret

8000164c <donut>:
8000164c:	f8c10113          	addi	sp,sp,-116
80001650:	06310793          	addi	a5,sp,99
80001654:	ff87f793          	andi	a5,a5,-8
80001658:	04f12023          	sw	a5,64(sp)
8000165c:	40000793          	li	a5,1024
80001660:	00f12423          	sw	a5,8(sp)
80001664:	00f12823          	sw	a5,16(sp)
80001668:	000017b7          	lui	a5,0x1
8000166c:	80078793          	addi	a5,a5,-2048 # 800 <_entry_offset+0x800>
80001670:	06112823          	sw	ra,112(sp)
80001674:	06812623          	sw	s0,108(sp)
80001678:	06912423          	sw	s1,104(sp)
8000167c:	00012223          	sw	zero,4(sp)
80001680:	00012a23          	sw	zero,20(sp)
80001684:	02f12e23          	sw	a5,60(sp)
80001688:	6e000613          	li	a2,1760
8000168c:	02000593          	li	a1,32
80001690:	00009517          	auipc	a0,0x9
80001694:	9a450513          	addi	a0,a0,-1628 # 8000a034 <b>
80001698:	44c020ef          	jal	ra,80003ae4 <memset>
8000169c:	6e000613          	li	a2,1760
800016a0:	07f00593          	li	a1,127
800016a4:	00009517          	auipc	a0,0x9
800016a8:	5b050513          	addi	a0,a0,1456 # 8000ac54 <z>
800016ac:	438020ef          	jal	ra,80003ae4 <memset>
800016b0:	01412783          	lw	a5,20(sp)
800016b4:	02012a23          	sw	zero,52(sp)
800016b8:	40f007b3          	neg	a5,a5
800016bc:	02f12423          	sw	a5,40(sp)
800016c0:	01012783          	lw	a5,16(sp)
800016c4:	40f007b3          	neg	a5,a5
800016c8:	02f12623          	sw	a5,44(sp)
800016cc:	05a00793          	li	a5,90
800016d0:	02f12c23          	sw	a5,56(sp)
800016d4:	40000793          	li	a5,1024
800016d8:	02f12823          	sw	a5,48(sp)
800016dc:	03412703          	lw	a4,52(sp)
800016e0:	01012783          	lw	a5,16(sp)
800016e4:	01412683          	lw	a3,20(sp)
800016e8:	03012583          	lw	a1,48(sp)
800016ec:	02e78633          	mul	a2,a5,a4
800016f0:	03c12783          	lw	a5,60(sp)
800016f4:	14400413          	li	s0,324
800016f8:	40000393          	li	t2,1024
800016fc:	00f587b3          	add	a5,a1,a5
80001700:	00f12e23          	sw	a5,28(sp)
80001704:	00812023          	sw	s0,0(sp)
80001708:	00000793          	li	a5,0
8000170c:	02e686b3          	mul	a3,a3,a4
80001710:	c0067713          	andi	a4,a2,-1024
80001714:	40a65613          	srai	a2,a2,0xa
80001718:	02c12223          	sw	a2,36(sp)
8000171c:	00500637          	lui	a2,0x500
80001720:	00c70733          	add	a4,a4,a2
80001724:	00e12c23          	sw	a4,24(sp)
80001728:	00812703          	lw	a4,8(sp)
8000172c:	02b70733          	mul	a4,a4,a1
80001730:	40a6d693          	srai	a3,a3,0xa
80001734:	00d12623          	sw	a3,12(sp)
80001738:	40a75713          	srai	a4,a4,0xa
8000173c:	02e12023          	sw	a4,32(sp)
80001740:	01c12683          	lw	a3,28(sp)
80001744:	00012583          	lw	a1,0(sp)
80001748:	01412483          	lw	s1,20(sp)
8000174c:	02d780b3          	mul	ra,a5,a3
80001750:	fff58593          	addi	a1,a1,-1
80001754:	00b12023          	sw	a1,0(sp)
80001758:	01012583          	lw	a1,16(sp)
8000175c:	00279613          	slli	a2,a5,0x2
80001760:	00f60633          	add	a2,a2,a5
80001764:	00239713          	slli	a4,t2,0x2
80001768:	00770733          	add	a4,a4,t2
8000176c:	40865613          	srai	a2,a2,0x8
80001770:	40c38633          	sub	a2,t2,a2
80001774:	40a0d313          	srai	t1,ra,0xa
80001778:	02658533          	mul	a0,a1,t1
8000177c:	00812583          	lw	a1,8(sp)
80001780:	40875713          	srai	a4,a4,0x8
80001784:	01400413          	li	s0,20
80001788:	00f70733          	add	a4,a4,a5
8000178c:	02d382b3          	mul	t0,t2,a3
80001790:	00c12683          	lw	a3,12(sp)
80001794:	40a55513          	srai	a0,a0,0xa
80001798:	40a68533          	sub	a0,a3,a0
8000179c:	00412683          	lw	a3,4(sp)
800017a0:	40a2d293          	srai	t0,t0,0xa
800017a4:	025585b3          	mul	a1,a1,t0
800017a8:	02a686b3          	mul	a3,a3,a0
800017ac:	02648333          	mul	t1,s1,t1
800017b0:	01812483          	lw	s1,24(sp)
800017b4:	00b686b3          	add	a3,a3,a1
800017b8:	00469593          	slli	a1,a3,0x4
800017bc:	40d586b3          	sub	a3,a1,a3
800017c0:	00930333          	add	t1,t1,s1
800017c4:	0266c6b3          	div	a3,a3,t1
800017c8:	00b68493          	addi	s1,a3,11
800017cc:	02c605b3          	mul	a1,a2,a2
800017d0:	0e946a63          	bltu	s0,s1,800018c4 <donut+0x278>
800017d4:	00412403          	lw	s0,4(sp)
800017d8:	00c68693          	addi	a3,a3,12
800017dc:	00269493          	slli	s1,a3,0x2
800017e0:	00d486b3          	add	a3,s1,a3
800017e4:	ffb004b7          	lui	s1,0xffb00
800017e8:	009304b3          	add	s1,t1,s1
800017ec:	00469693          	slli	a3,a3,0x4
800017f0:	40f4d493          	srai	s1,s1,0xf
800017f4:	025402b3          	mul	t0,s0,t0
800017f8:	00812403          	lw	s0,8(sp)
800017fc:	01849493          	slli	s1,s1,0x18
80001800:	4184d493          	srai	s1,s1,0x18
80001804:	02a40533          	mul	a0,s0,a0
80001808:	40a28533          	sub	a0,t0,a0
8000180c:	00451293          	slli	t0,a0,0x4
80001810:	40a282b3          	sub	t0,t0,a0
80001814:	00129293          	slli	t0,t0,0x1
80001818:	0262c2b3          	div	t0,t0,t1
8000181c:	00009317          	auipc	t1,0x9
80001820:	43830313          	addi	t1,t1,1080 # 8000ac54 <z>
80001824:	01928513          	addi	a0,t0,25
80001828:	00a686b3          	add	a3,a3,a0
8000182c:	00d30533          	add	a0,t1,a3
80001830:	01828293          	addi	t0,t0,24
80001834:	04e00313          	li	t1,78
80001838:	08536663          	bltu	t1,t0,800018c4 <donut+0x278>
8000183c:	00b79793          	slli	a5,a5,0xb
80001840:	40f080b3          	sub	ra,ra,a5
80001844:	00050783          	lb	a5,0(a0)
80001848:	00008317          	auipc	t1,0x8
8000184c:	7ec30313          	addi	t1,t1,2028 # 8000a034 <b>
80001850:	40a0d093          	srai	ra,ra,0xa
80001854:	00d30333          	add	t1,t1,a3
80001858:	06f4d663          	bge	s1,a5,800018c4 <donut+0x278>
8000185c:	02c12783          	lw	a5,44(sp)
80001860:	00950023          	sb	s1,0(a0)
80001864:	00c12503          	lw	a0,12(sp)
80001868:	02f087b3          	mul	a5,ra,a5
8000186c:	00412403          	lw	s0,4(sp)
80001870:	02012683          	lw	a3,32(sp)
80001874:	40a7d793          	srai	a5,a5,0xa
80001878:	00a787b3          	add	a5,a5,a0
8000187c:	02812503          	lw	a0,40(sp)
80001880:	028787b3          	mul	a5,a5,s0
80001884:	02a080b3          	mul	ra,ra,a0
80001888:	027683b3          	mul	t2,a3,t2
8000188c:	40f080b3          	sub	ra,ra,a5
80001890:	02412683          	lw	a3,36(sp)
80001894:	407080b3          	sub	ra,ra,t2
80001898:	40a0d793          	srai	a5,ra,0xa
8000189c:	40d787b3          	sub	a5,a5,a3
800018a0:	4077d793          	srai	a5,a5,0x7
800018a4:	fff7c693          	not	a3,a5
800018a8:	41f6d693          	srai	a3,a3,0x1f
800018ac:	00d7f7b3          	and	a5,a5,a3
800018b0:	00004697          	auipc	a3,0x4
800018b4:	fc868693          	addi	a3,a3,-56 # 80005878 <minute+0xf08>
800018b8:	00f687b3          	add	a5,a3,a5
800018bc:	0007c783          	lbu	a5,0(a5)
800018c0:	00f30023          	sb	a5,0(t1)
800018c4:	02e707b3          	mul	a5,a4,a4
800018c8:	003006b7          	lui	a3,0x300
800018cc:	40b685b3          	sub	a1,a3,a1
800018d0:	40f585b3          	sub	a1,a1,a5
800018d4:	40b5d593          	srai	a1,a1,0xb
800018d8:	02b70733          	mul	a4,a4,a1
800018dc:	02b603b3          	mul	t2,a2,a1
800018e0:	40a75793          	srai	a5,a4,0xa
800018e4:	00012703          	lw	a4,0(sp)
800018e8:	40a3d393          	srai	t2,t2,0xa
800018ec:	e4071ae3          	bnez	a4,80001740 <donut+0xf4>
800018f0:	03412683          	lw	a3,52(sp)
800018f4:	03012603          	lw	a2,48(sp)
800018f8:	00300537          	lui	a0,0x300
800018fc:	00369713          	slli	a4,a3,0x3
80001900:	00d70733          	add	a4,a4,a3
80001904:	00361793          	slli	a5,a2,0x3
80001908:	40775713          	srai	a4,a4,0x7
8000190c:	40e60733          	sub	a4,a2,a4
80001910:	00c787b3          	add	a5,a5,a2
80001914:	03812603          	lw	a2,56(sp)
80001918:	4077d793          	srai	a5,a5,0x7
8000191c:	00d787b3          	add	a5,a5,a3
80001920:	02e706b3          	mul	a3,a4,a4
80001924:	fff60593          	addi	a1,a2,-1 # 4fffff <_entry_offset+0x4fffff>
80001928:	02b12c23          	sw	a1,56(sp)
8000192c:	02f78633          	mul	a2,a5,a5
80001930:	40d506b3          	sub	a3,a0,a3
80001934:	40c686b3          	sub	a3,a3,a2
80001938:	40b6d693          	srai	a3,a3,0xb
8000193c:	02d70733          	mul	a4,a4,a3
80001940:	02d787b3          	mul	a5,a5,a3
80001944:	40a75713          	srai	a4,a4,0xa
80001948:	02e12823          	sw	a4,48(sp)
8000194c:	40a7d793          	srai	a5,a5,0xa
80001950:	02f12a23          	sw	a5,52(sp)
80001954:	d80594e3          	bnez	a1,800016dc <donut+0x90>
80001958:	01012583          	lw	a1,16(sp)
8000195c:	00812503          	lw	a0,8(sp)
80001960:	01412303          	lw	t1,20(sp)
80001964:	00412283          	lw	t0,4(sp)
80001968:	00259613          	slli	a2,a1,0x2
8000196c:	00251693          	slli	a3,a0,0x2
80001970:	00b60633          	add	a2,a2,a1
80001974:	00231713          	slli	a4,t1,0x2
80001978:	00a686b3          	add	a3,a3,a0
8000197c:	00229793          	slli	a5,t0,0x2
80001980:	00670733          	add	a4,a4,t1
80001984:	005787b3          	add	a5,a5,t0
80001988:	40765613          	srai	a2,a2,0x7
8000198c:	4086d693          	srai	a3,a3,0x8
80001990:	40c30633          	sub	a2,t1,a2
80001994:	40d286b3          	sub	a3,t0,a3
80001998:	40775713          	srai	a4,a4,0x7
8000199c:	4087d793          	srai	a5,a5,0x8
800019a0:	00b70733          	add	a4,a4,a1
800019a4:	00a787b3          	add	a5,a5,a0
800019a8:	02d685b3          	mul	a1,a3,a3
800019ac:	00300337          	lui	t1,0x300
800019b0:	00000493          	li	s1,0
800019b4:	14000413          	li	s0,320
800019b8:	02c60533          	mul	a0,a2,a2
800019bc:	40b305b3          	sub	a1,t1,a1
800019c0:	02e702b3          	mul	t0,a4,a4
800019c4:	40a30533          	sub	a0,t1,a0
800019c8:	02f78333          	mul	t1,a5,a5
800019cc:	40550533          	sub	a0,a0,t0
800019d0:	40b55513          	srai	a0,a0,0xb
800019d4:	406585b3          	sub	a1,a1,t1
800019d8:	40b5d593          	srai	a1,a1,0xb
800019dc:	02a70733          	mul	a4,a4,a0
800019e0:	02a60633          	mul	a2,a2,a0
800019e4:	40a75713          	srai	a4,a4,0xa
800019e8:	00e12823          	sw	a4,16(sp)
800019ec:	02b686b3          	mul	a3,a3,a1
800019f0:	40a65613          	srai	a2,a2,0xa
800019f4:	00c12a23          	sw	a2,20(sp)
800019f8:	02b787b3          	mul	a5,a5,a1
800019fc:	40a6d713          	srai	a4,a3,0xa
80001a00:	00e12223          	sw	a4,4(sp)
80001a04:	40a7d793          	srai	a5,a5,0xa
80001a08:	00f12423          	sw	a5,8(sp)
80001a0c:	00009797          	auipc	a5,0x9
80001a10:	d4878793          	addi	a5,a5,-696 # 8000a754 <buf.2>
80001a14:	04f12623          	sw	a5,76(sp)
80001a18:	04410593          	addi	a1,sp,68
80001a1c:	00100793          	li	a5,1
80001a20:	00b00513          	li	a0,11
80001a24:	04912423          	sw	s1,72(sp)
80001a28:	04f12a23          	sw	a5,84(sp)
80001a2c:	04012223          	sw	zero,68(sp)
80001a30:	04812823          	sw	s0,80(sp)
80001a34:	04010c23          	sb	zero,88(sp)
80001a38:	279010ef          	jal	ra,800034b0 <ioe_write>
80001a3c:	00148493          	addi	s1,s1,1 # ffb00001 <_end+0x7faeb001>
80001a40:	0c800793          	li	a5,200
80001a44:	fcf494e3          	bne	s1,a5,80001a0c <donut+0x3c0>
80001a48:	00000413          	li	s0,0
80001a4c:	00000493          	li	s1,0
80001a50:	00000693          	li	a3,0
80001a54:	05000313          	li	t1,80
80001a58:	026467b3          	rem	a5,s0,t1
80001a5c:	1a078e63          	beqz	a5,80001c18 <donut+0x5cc>
80001a60:	03100793          	li	a5,49
80001a64:	0a97d063          	bge	a5,s1,80001b04 <donut+0x4b8>
80001a68:	00148493          	addi	s1,s1,1
80001a6c:	00140413          	addi	s0,s0,1
80001a70:	6e100793          	li	a5,1761
80001a74:	fef412e3          	bne	s0,a5,80001a58 <donut+0x40c>
80001a78:	00100793          	li	a5,1
80001a7c:	00b00513          	li	a0,11
80001a80:	04410593          	addi	a1,sp,68
80001a84:	04f10c23          	sb	a5,88(sp)
80001a88:	04012223          	sw	zero,68(sp)
80001a8c:	04012423          	sw	zero,72(sp)
80001a90:	04012623          	sw	zero,76(sp)
80001a94:	04012823          	sw	zero,80(sp)
80001a98:	04012a23          	sw	zero,84(sp)
80001a9c:	215010ef          	jal	ra,800034b0 <ioe_write>
80001aa0:	04012403          	lw	s0,64(sp)
80001aa4:	00600513          	li	a0,6
80001aa8:	00040593          	mv	a1,s0
80001aac:	1e9010ef          	jal	ra,80003494 <ioe_read>
80001ab0:	00042783          	lw	a5,0(s0)
80001ab4:	00018737          	lui	a4,0x18
80001ab8:	00442683          	lw	a3,4(s0)
80001abc:	6a070713          	addi	a4,a4,1696 # 186a0 <_entry_offset+0x186a0>
80001ac0:	00e784b3          	add	s1,a5,a4
80001ac4:	00f4b7b3          	sltu	a5,s1,a5
80001ac8:	00040593          	mv	a1,s0
80001acc:	00d78433          	add	s0,a5,a3
80001ad0:	00048793          	mv	a5,s1
80001ad4:	00040493          	mv	s1,s0
80001ad8:	00078413          	mv	s0,a5
80001adc:	00600513          	li	a0,6
80001ae0:	00b12023          	sw	a1,0(sp)
80001ae4:	1b1010ef          	jal	ra,80003494 <ioe_read>
80001ae8:	00012583          	lw	a1,0(sp)
80001aec:	0045a783          	lw	a5,4(a1)
80001af0:	0005a703          	lw	a4,0(a1)
80001af4:	fe97e4e3          	bltu	a5,s1,80001adc <donut+0x490>
80001af8:	b8f498e3          	bne	s1,a5,80001688 <donut+0x3c>
80001afc:	fe8760e3          	bltu	a4,s0,80001adc <donut+0x490>
80001b00:	b89ff06f          	j	80001688 <donut+0x3c>
80001b04:	00008797          	auipc	a5,0x8
80001b08:	53078793          	addi	a5,a5,1328 # 8000a034 <b>
80001b0c:	008787b3          	add	a5,a5,s0
80001b10:	00007717          	auipc	a4,0x7
80001b14:	d9770713          	addi	a4,a4,-617 # 800088a7 <last_c.1>
80001b18:	0007c783          	lbu	a5,0(a5)
80001b1c:	00074703          	lbu	a4,0(a4)
80001b20:	0af70863          	beq	a4,a5,80001bd0 <donut+0x584>
80001b24:	00007717          	auipc	a4,0x7
80001b28:	d8370713          	addi	a4,a4,-637 # 800088a7 <last_c.1>
80001b2c:	00f70023          	sb	a5,0(a4)
80001b30:	02000613          	li	a2,32
80001b34:	00000713          	li	a4,0
80001b38:	06c78e63          	beq	a5,a2,80001bb4 <donut+0x568>
80001b3c:	01900713          	li	a4,25
80001b40:	02e7d733          	divu	a4,a5,a4
80001b44:	00500613          	li	a2,5
80001b48:	00371593          	slli	a1,a4,0x3
80001b4c:	40e585b3          	sub	a1,a1,a4
80001b50:	00559513          	slli	a0,a1,0x5
80001b54:	00a585b3          	add	a1,a1,a0
80001b58:	00b787b3          	add	a5,a5,a1
80001b5c:	0ff7f793          	zext.b	a5,a5
80001b60:	02c7d5b3          	divu	a1,a5,a2
80001b64:	00871713          	slli	a4,a4,0x8
80001b68:	00259513          	slli	a0,a1,0x2
80001b6c:	00a58533          	add	a0,a1,a0
80001b70:	00859593          	slli	a1,a1,0x8
80001b74:	02c5c5b3          	div	a1,a1,a2
80001b78:	40a787b3          	sub	a5,a5,a0
80001b7c:	0ff7f793          	zext.b	a5,a5
80001b80:	00879793          	slli	a5,a5,0x8
80001b84:	00ff0537          	lui	a0,0xff0
80001b88:	02c74733          	div	a4,a4,a2
80001b8c:	02c7c7b3          	div	a5,a5,a2
80001b90:	00859613          	slli	a2,a1,0x8
80001b94:	000105b7          	lui	a1,0x10
80001b98:	01071713          	slli	a4,a4,0x10
80001b9c:	fff58593          	addi	a1,a1,-1 # ffff <_entry_offset+0xffff>
80001ba0:	00a77733          	and	a4,a4,a0
80001ba4:	00b67633          	and	a2,a2,a1
80001ba8:	00c76733          	or	a4,a4,a2
80001bac:	0ff7f793          	zext.b	a5,a5
80001bb0:	00f76733          	or	a4,a4,a5
80001bb4:	00009797          	auipc	a5,0x9
80001bb8:	b6078793          	addi	a5,a5,-1184 # 8000a714 <buf.0>
80001bbc:	00e7a023          	sw	a4,0(a5)
80001bc0:	00009617          	auipc	a2,0x9
80001bc4:	b9460613          	addi	a2,a2,-1132 # 8000a754 <buf.2>
80001bc8:	00478793          	addi	a5,a5,4
80001bcc:	fef618e3          	bne	a2,a5,80001bbc <donut+0x570>
80001bd0:	00269713          	slli	a4,a3,0x2
80001bd4:	00400793          	li	a5,4
80001bd8:	00249613          	slli	a2,s1,0x2
80001bdc:	04e12423          	sw	a4,72(sp)
80001be0:	04410593          	addi	a1,sp,68
80001be4:	00009717          	auipc	a4,0x9
80001be8:	b3070713          	addi	a4,a4,-1232 # 8000a714 <buf.0>
80001bec:	00b00513          	li	a0,11
80001bf0:	00d12023          	sw	a3,0(sp)
80001bf4:	04c12223          	sw	a2,68(sp)
80001bf8:	04e12623          	sw	a4,76(sp)
80001bfc:	04f12823          	sw	a5,80(sp)
80001c00:	04f12a23          	sw	a5,84(sp)
80001c04:	04010c23          	sb	zero,88(sp)
80001c08:	0a9010ef          	jal	ra,800034b0 <ioe_write>
80001c0c:	00012683          	lw	a3,0(sp)
80001c10:	05000313          	li	t1,80
80001c14:	e55ff06f          	j	80001a68 <donut+0x41c>
80001c18:	00168693          	addi	a3,a3,1 # 300001 <_entry_offset+0x300001>
80001c1c:	00100493          	li	s1,1
80001c20:	e4dff06f          	j	80001a6c <donut+0x420>

80001c24 <ant>:
80001c24:	fa410113          	addi	sp,sp,-92
80001c28:	04b10793          	addi	a5,sp,75
80001c2c:	ff87f793          	andi	a5,a5,-8
80001c30:	02c10593          	addi	a1,sp,44
80001c34:	00900513          	li	a0,9
80001c38:	04112c23          	sw	ra,88(sp)
80001c3c:	04812a23          	sw	s0,84(sp)
80001c40:	04912823          	sw	s1,80(sp)
80001c44:	02f12423          	sw	a5,40(sp)
80001c48:	04d010ef          	jal	ra,80003494 <ioe_read>
80001c4c:	03012703          	lw	a4,48(sp)
80001c50:	00007417          	auipc	s0,0x7
80001c54:	c6840413          	addi	s0,s0,-920 # 800088b8 <w>
80001c58:	02c10593          	addi	a1,sp,44
80001c5c:	41f75793          	srai	a5,a4,0x1f
80001c60:	0037f793          	andi	a5,a5,3
80001c64:	00e787b3          	add	a5,a5,a4
80001c68:	4027d793          	srai	a5,a5,0x2
80001c6c:	00900513          	li	a0,9
80001c70:	00f42023          	sw	a5,0(s0)
80001c74:	021010ef          	jal	ra,80003494 <ioe_read>
80001c78:	03412603          	lw	a2,52(sp)
80001c7c:	00042583          	lw	a1,0(s0)
80001c80:	00000413          	li	s0,0
80001c84:	41f65793          	srai	a5,a2,0x1f
80001c88:	0037f713          	andi	a4,a5,3
80001c8c:	00c70733          	add	a4,a4,a2
80001c90:	40275713          	srai	a4,a4,0x2
80001c94:	02e584b3          	mul	s1,a1,a4
80001c98:	01f5d693          	srli	a3,a1,0x1f
80001c9c:	0077f793          	andi	a5,a5,7
80001ca0:	00b686b3          	add	a3,a3,a1
80001ca4:	00c787b3          	add	a5,a5,a2
80001ca8:	00007617          	auipc	a2,0x7
80001cac:	c0860613          	addi	a2,a2,-1016 # 800088b0 <h>
80001cb0:	00e62023          	sw	a4,0(a2)
80001cb4:	4037d793          	srai	a5,a5,0x3
80001cb8:	4016d713          	srai	a4,a3,0x1
80001cbc:	00e12423          	sw	a4,8(sp)
80001cc0:	00048513          	mv	a0,s1
80001cc4:	00f12623          	sw	a5,12(sp)
80001cc8:	5b9010ef          	jal	ra,80003a80 <malloc>
80001ccc:	00048613          	mv	a2,s1
80001cd0:	0000a797          	auipc	a5,0xa
80001cd4:	78478793          	addi	a5,a5,1924 # 8000c454 <pix>
80001cd8:	00000593          	li	a1,0
80001cdc:	00a7a023          	sw	a0,0(a5)
80001ce0:	14000493          	li	s1,320
80001ce4:	601010ef          	jal	ra,80003ae4 <memset>
80001ce8:	00009797          	auipc	a5,0x9
80001cec:	68c78793          	addi	a5,a5,1676 # 8000b374 <buf.2>
80001cf0:	02f12a23          	sw	a5,52(sp)
80001cf4:	02c10593          	addi	a1,sp,44
80001cf8:	00100793          	li	a5,1
80001cfc:	00b00513          	li	a0,11
80001d00:	02812823          	sw	s0,48(sp)
80001d04:	02f12e23          	sw	a5,60(sp)
80001d08:	02012623          	sw	zero,44(sp)
80001d0c:	02912c23          	sw	s1,56(sp)
80001d10:	04010023          	sb	zero,64(sp)
80001d14:	79c010ef          	jal	ra,800034b0 <ioe_write>
80001d18:	00140413          	addi	s0,s0,1
80001d1c:	0c800793          	li	a5,200
80001d20:	fcf414e3          	bne	s0,a5,80001ce8 <ant+0xc4>
80001d24:	00100793          	li	a5,1
80001d28:	00f12a23          	sw	a5,20(sp)
80001d2c:	00c12783          	lw	a5,12(sp)
80001d30:	00012823          	sw	zero,16(sp)
80001d34:	00178793          	addi	a5,a5,1
80001d38:	00f12e23          	sw	a5,28(sp)
80001d3c:	00812783          	lw	a5,8(sp)
80001d40:	00178793          	addi	a5,a5,1
80001d44:	00f12c23          	sw	a5,24(sp)
80001d48:	00007797          	auipc	a5,0x7
80001d4c:	b7078793          	addi	a5,a5,-1168 # 800088b8 <w>
80001d50:	0007a703          	lw	a4,0(a5)
80001d54:	00c12603          	lw	a2,12(sp)
80001d58:	0000a797          	auipc	a5,0xa
80001d5c:	6fc78793          	addi	a5,a5,1788 # 8000c454 <pix>
80001d60:	0007a783          	lw	a5,0(a5)
80001d64:	02e60733          	mul	a4,a2,a4
80001d68:	00812603          	lw	a2,8(sp)
80001d6c:	00007697          	auipc	a3,0x7
80001d70:	b3c68693          	addi	a3,a3,-1220 # 800088a8 <last_c.1>
80001d74:	0006c683          	lbu	a3,0(a3)
80001d78:	00c70733          	add	a4,a4,a2
80001d7c:	00e787b3          	add	a5,a5,a4
80001d80:	0007c703          	lbu	a4,0(a5)
80001d84:	20070a63          	beqz	a4,80001f98 <ant+0x374>
80001d88:	00078023          	sb	zero,0(a5)
80001d8c:	01412783          	lw	a5,20(sp)
80001d90:	02000713          	li	a4,32
80001d94:	40f007b3          	neg	a5,a5
80001d98:	3ee68863          	beq	a3,a4,80002188 <ant+0x564>
80001d9c:	01012703          	lw	a4,16(sp)
80001da0:	02000693          	li	a3,32
80001da4:	00f12823          	sw	a5,16(sp)
80001da8:	00e12a23          	sw	a4,20(sp)
80001dac:	00000713          	li	a4,0
80001db0:	00007797          	auipc	a5,0x7
80001db4:	af878793          	addi	a5,a5,-1288 # 800088a8 <last_c.1>
80001db8:	00d78023          	sb	a3,0(a5)
80001dbc:	00009797          	auipc	a5,0x9
80001dc0:	57878793          	addi	a5,a5,1400 # 8000b334 <buf.0>
80001dc4:	00e7a023          	sw	a4,0(a5)
80001dc8:	00009697          	auipc	a3,0x9
80001dcc:	5ac68693          	addi	a3,a3,1452 # 8000b374 <buf.2>
80001dd0:	00478793          	addi	a5,a5,4
80001dd4:	fed798e3          	bne	a5,a3,80001dc4 <ant+0x1a0>
80001dd8:	01812703          	lw	a4,24(sp)
80001ddc:	00400793          	li	a5,4
80001de0:	00812603          	lw	a2,8(sp)
80001de4:	00271693          	slli	a3,a4,0x2
80001de8:	01c12703          	lw	a4,28(sp)
80001dec:	01012303          	lw	t1,16(sp)
80001df0:	02f12c23          	sw	a5,56(sp)
80001df4:	00271713          	slli	a4,a4,0x2
80001df8:	02e12823          	sw	a4,48(sp)
80001dfc:	00009717          	auipc	a4,0x9
80001e00:	53870713          	addi	a4,a4,1336 # 8000b334 <buf.0>
80001e04:	02e12a23          	sw	a4,52(sp)
80001e08:	02f12e23          	sw	a5,60(sp)
80001e0c:	01412703          	lw	a4,20(sp)
80001e10:	00c12783          	lw	a5,12(sp)
80001e14:	00660433          	add	s0,a2,t1
80001e18:	02c10593          	addi	a1,sp,44
80001e1c:	00e787b3          	add	a5,a5,a4
80001e20:	00b00513          	li	a0,11
80001e24:	00f12623          	sw	a5,12(sp)
80001e28:	00812423          	sw	s0,8(sp)
80001e2c:	02d12623          	sw	a3,44(sp)
80001e30:	04010023          	sb	zero,64(sp)
80001e34:	67c010ef          	jal	ra,800034b0 <ioe_write>
80001e38:	00007797          	auipc	a5,0x7
80001e3c:	a8078793          	addi	a5,a5,-1408 # 800088b8 <w>
80001e40:	0007a703          	lw	a4,0(a5)
80001e44:	00007797          	auipc	a5,0x7
80001e48:	a6c78793          	addi	a5,a5,-1428 # 800088b0 <h>
80001e4c:	0007a483          	lw	s1,0(a5)
80001e50:	42044a63          	bltz	s0,80002284 <ant+0x660>
80001e54:	00812783          	lw	a5,8(sp)
80001e58:	3ae7d463          	bge	a5,a4,80002200 <ant+0x5dc>
80001e5c:	00812783          	lw	a5,8(sp)
80001e60:	00178793          	addi	a5,a5,1
80001e64:	00f12c23          	sw	a5,24(sp)
80001e68:	02f12023          	sw	a5,32(sp)
80001e6c:	00c12783          	lw	a5,12(sp)
80001e70:	1497de63          	bge	a5,s1,80001fcc <ant+0x3a8>
80001e74:	00c12683          	lw	a3,12(sp)
80001e78:	00168793          	addi	a5,a3,1
80001e7c:	00f12e23          	sw	a5,28(sp)
80001e80:	02f12223          	sw	a5,36(sp)
80001e84:	3206c263          	bltz	a3,800021a8 <ant+0x584>
80001e88:	00007797          	auipc	a5,0x7
80001e8c:	a2078793          	addi	a5,a5,-1504 # 800088a8 <last_c.1>
80001e90:	0007c703          	lbu	a4,0(a5)
80001e94:	02b00793          	li	a5,43
80001e98:	02f70a63          	beq	a4,a5,80001ecc <ant+0x2a8>
80001e9c:	00007717          	auipc	a4,0x7
80001ea0:	a0c70713          	addi	a4,a4,-1524 # 800088a8 <last_c.1>
80001ea4:	00f70023          	sb	a5,0(a4)
80001ea8:	0033a737          	lui	a4,0x33a
80001eac:	00009797          	auipc	a5,0x9
80001eb0:	48878793          	addi	a5,a5,1160 # 8000b334 <buf.0>
80001eb4:	99970713          	addi	a4,a4,-1639 # 339999 <_entry_offset+0x339999>
80001eb8:	00e7a023          	sw	a4,0(a5)
80001ebc:	00009697          	auipc	a3,0x9
80001ec0:	4b868693          	addi	a3,a3,1208 # 8000b374 <buf.2>
80001ec4:	00478793          	addi	a5,a5,4
80001ec8:	fed798e3          	bne	a5,a3,80001eb8 <ant+0x294>
80001ecc:	02012703          	lw	a4,32(sp)
80001ed0:	00400793          	li	a5,4
80001ed4:	02c10593          	addi	a1,sp,44
80001ed8:	00271693          	slli	a3,a4,0x2
80001edc:	02412703          	lw	a4,36(sp)
80001ee0:	00b00513          	li	a0,11
80001ee4:	02d12623          	sw	a3,44(sp)
80001ee8:	00271713          	slli	a4,a4,0x2
80001eec:	02e12823          	sw	a4,48(sp)
80001ef0:	00009717          	auipc	a4,0x9
80001ef4:	44470713          	addi	a4,a4,1092 # 8000b334 <buf.0>
80001ef8:	02e12a23          	sw	a4,52(sp)
80001efc:	02f12c23          	sw	a5,56(sp)
80001f00:	02f12e23          	sw	a5,60(sp)
80001f04:	04010023          	sb	zero,64(sp)
80001f08:	5a8010ef          	jal	ra,800034b0 <ioe_write>
80001f0c:	00100793          	li	a5,1
80001f10:	00b00513          	li	a0,11
80001f14:	02c10593          	addi	a1,sp,44
80001f18:	04f10023          	sb	a5,64(sp)
80001f1c:	02012623          	sw	zero,44(sp)
80001f20:	02012823          	sw	zero,48(sp)
80001f24:	02012a23          	sw	zero,52(sp)
80001f28:	02012c23          	sw	zero,56(sp)
80001f2c:	02012e23          	sw	zero,60(sp)
80001f30:	580010ef          	jal	ra,800034b0 <ioe_write>
80001f34:	02812403          	lw	s0,40(sp)
80001f38:	00600513          	li	a0,6
80001f3c:	00040593          	mv	a1,s0
80001f40:	554010ef          	jal	ra,80003494 <ioe_read>
80001f44:	00042783          	lw	a5,0(s0)
80001f48:	00002737          	lui	a4,0x2
80001f4c:	00442683          	lw	a3,4(s0)
80001f50:	71070713          	addi	a4,a4,1808 # 2710 <_entry_offset+0x2710>
80001f54:	00e784b3          	add	s1,a5,a4
80001f58:	00f4b7b3          	sltu	a5,s1,a5
80001f5c:	00040613          	mv	a2,s0
80001f60:	00d78433          	add	s0,a5,a3
80001f64:	00912023          	sw	s1,0(sp)
80001f68:	00040493          	mv	s1,s0
80001f6c:	00060413          	mv	s0,a2
80001f70:	00040593          	mv	a1,s0
80001f74:	00600513          	li	a0,6
80001f78:	51c010ef          	jal	ra,80003494 <ioe_read>
80001f7c:	00442783          	lw	a5,4(s0)
80001f80:	00042683          	lw	a3,0(s0)
80001f84:	fe97e6e3          	bltu	a5,s1,80001f70 <ant+0x34c>
80001f88:	dcf490e3          	bne	s1,a5,80001d48 <ant+0x124>
80001f8c:	00012783          	lw	a5,0(sp)
80001f90:	fef6e0e3          	bltu	a3,a5,80001f70 <ant+0x34c>
80001f94:	db5ff06f          	j	80001d48 <ant+0x124>
80001f98:	00100713          	li	a4,1
80001f9c:	00e78023          	sb	a4,0(a5)
80001fa0:	01012783          	lw	a5,16(sp)
80001fa4:	06f00713          	li	a4,111
80001fa8:	40f007b3          	neg	a5,a5
80001fac:	1ee68663          	beq	a3,a4,80002198 <ant+0x574>
80001fb0:	01412703          	lw	a4,20(sp)
80001fb4:	06f00693          	li	a3,111
80001fb8:	00f12a23          	sw	a5,20(sp)
80001fbc:	00e12823          	sw	a4,16(sp)
80001fc0:	00cc6737          	lui	a4,0xcc6
80001fc4:	63370713          	addi	a4,a4,1587 # cc6633 <_entry_offset+0xcc6633>
80001fc8:	de9ff06f          	j	80001db0 <ant+0x18c>
80001fcc:	0000a797          	auipc	a5,0xa
80001fd0:	48878793          	addi	a5,a5,1160 # 8000c454 <pix>
80001fd4:	0007a403          	lw	s0,0(a5)
80001fd8:	fff48493          	addi	s1,s1,-1
80001fdc:	02e484b3          	mul	s1,s1,a4
80001fe0:	00c12783          	lw	a5,12(sp)
80001fe4:	00e405b3          	add	a1,s0,a4
80001fe8:	00040513          	mv	a0,s0
80001fec:	02f12223          	sw	a5,36(sp)
80001ff0:	fff78793          	addi	a5,a5,-1
80001ff4:	00f12623          	sw	a5,12(sp)
80001ff8:	00178793          	addi	a5,a5,1
80001ffc:	00e12023          	sw	a4,0(sp)
80002000:	00f12e23          	sw	a5,28(sp)
80002004:	00048613          	mv	a2,s1
80002008:	2fd010ef          	jal	ra,80003b04 <memmove>
8000200c:	00012703          	lw	a4,0(sp)
80002010:	00000593          	li	a1,0
80002014:	00940533          	add	a0,s0,s1
80002018:	00070613          	mv	a2,a4
8000201c:	2c9010ef          	jal	ra,80003ae4 <memset>
80002020:	00000493          	li	s1,0
80002024:	14000413          	li	s0,320
80002028:	00009797          	auipc	a5,0x9
8000202c:	34c78793          	addi	a5,a5,844 # 8000b374 <buf.2>
80002030:	02f12a23          	sw	a5,52(sp)
80002034:	02c10593          	addi	a1,sp,44
80002038:	00100793          	li	a5,1
8000203c:	00b00513          	li	a0,11
80002040:	02912823          	sw	s1,48(sp)
80002044:	02f12e23          	sw	a5,60(sp)
80002048:	02012623          	sw	zero,44(sp)
8000204c:	02812c23          	sw	s0,56(sp)
80002050:	04010023          	sb	zero,64(sp)
80002054:	45c010ef          	jal	ra,800034b0 <ioe_write>
80002058:	00148493          	addi	s1,s1,1
8000205c:	0c800793          	li	a5,200
80002060:	fcf494e3          	bne	s1,a5,80002028 <ant+0x404>
80002064:	00007797          	auipc	a5,0x7
80002068:	84c78793          	addi	a5,a5,-1972 # 800088b0 <h>
8000206c:	0007a783          	lw	a5,0(a5)
80002070:	00012223          	sw	zero,4(sp)
80002074:	00000493          	li	s1,0
80002078:	e0f058e3          	blez	a5,80001e88 <ant+0x264>
8000207c:	00007797          	auipc	a5,0x7
80002080:	83c78793          	addi	a5,a5,-1988 # 800088b8 <w>
80002084:	0007a703          	lw	a4,0(a5)
80002088:	00412783          	lw	a5,4(sp)
8000208c:	00000413          	li	s0,0
80002090:	00279793          	slli	a5,a5,0x2
80002094:	00f12023          	sw	a5,0(sp)
80002098:	0ae05e63          	blez	a4,80002154 <ant+0x530>
8000209c:	00048793          	mv	a5,s1
800020a0:	00040493          	mv	s1,s0
800020a4:	00078413          	mv	s0,a5
800020a8:	0000a797          	auipc	a5,0xa
800020ac:	3ac78793          	addi	a5,a5,940 # 8000c454 <pix>
800020b0:	0007a783          	lw	a5,0(a5)
800020b4:	00006717          	auipc	a4,0x6
800020b8:	7f470713          	addi	a4,a4,2036 # 800088a8 <last_c.1>
800020bc:	00074603          	lbu	a2,0(a4)
800020c0:	008787b3          	add	a5,a5,s0
800020c4:	0007c783          	lbu	a5,0(a5)
800020c8:	0a079663          	bnez	a5,80002174 <ant+0x550>
800020cc:	02000793          	li	a5,32
800020d0:	00000693          	li	a3,0
800020d4:	02f60663          	beq	a2,a5,80002100 <ant+0x4dc>
800020d8:	00006717          	auipc	a4,0x6
800020dc:	7d070713          	addi	a4,a4,2000 # 800088a8 <last_c.1>
800020e0:	00f70023          	sb	a5,0(a4)
800020e4:	00009797          	auipc	a5,0x9
800020e8:	25078793          	addi	a5,a5,592 # 8000b334 <buf.0>
800020ec:	00d7a023          	sw	a3,0(a5)
800020f0:	00009717          	auipc	a4,0x9
800020f4:	28470713          	addi	a4,a4,644 # 8000b374 <buf.2>
800020f8:	00478793          	addi	a5,a5,4
800020fc:	fef718e3          	bne	a4,a5,800020ec <ant+0x4c8>
80002100:	00012703          	lw	a4,0(sp)
80002104:	00400793          	li	a5,4
80002108:	00249693          	slli	a3,s1,0x2
8000210c:	02e12823          	sw	a4,48(sp)
80002110:	02c10593          	addi	a1,sp,44
80002114:	00009717          	auipc	a4,0x9
80002118:	22070713          	addi	a4,a4,544 # 8000b334 <buf.0>
8000211c:	00b00513          	li	a0,11
80002120:	02f12c23          	sw	a5,56(sp)
80002124:	02f12e23          	sw	a5,60(sp)
80002128:	02d12623          	sw	a3,44(sp)
8000212c:	02e12a23          	sw	a4,52(sp)
80002130:	04010023          	sb	zero,64(sp)
80002134:	37c010ef          	jal	ra,800034b0 <ioe_write>
80002138:	00006797          	auipc	a5,0x6
8000213c:	78078793          	addi	a5,a5,1920 # 800088b8 <w>
80002140:	0007a783          	lw	a5,0(a5)
80002144:	00148493          	addi	s1,s1,1
80002148:	00140413          	addi	s0,s0,1
8000214c:	f4f4cee3          	blt	s1,a5,800020a8 <ant+0x484>
80002150:	00040493          	mv	s1,s0
80002154:	00412703          	lw	a4,4(sp)
80002158:	00006797          	auipc	a5,0x6
8000215c:	75878793          	addi	a5,a5,1880 # 800088b0 <h>
80002160:	0007a783          	lw	a5,0(a5)
80002164:	00170713          	addi	a4,a4,1
80002168:	00e12223          	sw	a4,4(sp)
8000216c:	f0f748e3          	blt	a4,a5,8000207c <ant+0x458>
80002170:	d19ff06f          	j	80001e88 <ant+0x264>
80002174:	02300793          	li	a5,35
80002178:	f8f604e3          	beq	a2,a5,80002100 <ant+0x4dc>
8000217c:	003366b7          	lui	a3,0x336
80002180:	60068693          	addi	a3,a3,1536 # 336600 <_entry_offset+0x336600>
80002184:	f55ff06f          	j	800020d8 <ant+0x4b4>
80002188:	01012703          	lw	a4,16(sp)
8000218c:	00f12823          	sw	a5,16(sp)
80002190:	00e12a23          	sw	a4,20(sp)
80002194:	c45ff06f          	j	80001dd8 <ant+0x1b4>
80002198:	01412703          	lw	a4,20(sp)
8000219c:	00f12a23          	sw	a5,20(sp)
800021a0:	00e12823          	sw	a4,16(sp)
800021a4:	c35ff06f          	j	80001dd8 <ant+0x1b4>
800021a8:	0000a797          	auipc	a5,0xa
800021ac:	2ac78793          	addi	a5,a5,684 # 8000c454 <pix>
800021b0:	0007a403          	lw	s0,0(a5)
800021b4:	fff48613          	addi	a2,s1,-1
800021b8:	02e60633          	mul	a2,a2,a4
800021bc:	00c12783          	lw	a5,12(sp)
800021c0:	00e40533          	add	a0,s0,a4
800021c4:	00e12023          	sw	a4,0(sp)
800021c8:	00278713          	addi	a4,a5,2
800021cc:	00178793          	addi	a5,a5,1
800021d0:	00040593          	mv	a1,s0
800021d4:	00f12623          	sw	a5,12(sp)
800021d8:	00178793          	addi	a5,a5,1
800021dc:	02e12223          	sw	a4,36(sp)
800021e0:	00f12e23          	sw	a5,28(sp)
800021e4:	121010ef          	jal	ra,80003b04 <memmove>
800021e8:	00012703          	lw	a4,0(sp)
800021ec:	00000593          	li	a1,0
800021f0:	00040513          	mv	a0,s0
800021f4:	00070613          	mv	a2,a4
800021f8:	0ed010ef          	jal	ra,80003ae4 <memset>
800021fc:	e25ff06f          	j	80002020 <ant+0x3fc>
80002200:	029706b3          	mul	a3,a4,s1
80002204:	0000a797          	auipc	a5,0xa
80002208:	25078793          	addi	a5,a5,592 # 8000c454 <pix>
8000220c:	0007a403          	lw	s0,0(a5)
80002210:	00e12223          	sw	a4,4(sp)
80002214:	00140593          	addi	a1,s0,1
80002218:	00040513          	mv	a0,s0
8000221c:	fff68613          	addi	a2,a3,-1
80002220:	00d12023          	sw	a3,0(sp)
80002224:	0e1010ef          	jal	ra,80003b04 <memmove>
80002228:	00412703          	lw	a4,4(sp)
8000222c:	00012683          	lw	a3,0(sp)
80002230:	fff70793          	addi	a5,a4,-1
80002234:	00d7da63          	bge	a5,a3,80002248 <ant+0x624>
80002238:	00f40633          	add	a2,s0,a5
8000223c:	00060023          	sb	zero,0(a2)
80002240:	00e787b3          	add	a5,a5,a4
80002244:	fed7cae3          	blt	a5,a3,80002238 <ant+0x614>
80002248:	00812783          	lw	a5,8(sp)
8000224c:	00c12683          	lw	a3,12(sp)
80002250:	fff78793          	addi	a5,a5,-1
80002254:	0a96da63          	bge	a3,s1,80002308 <ant+0x6e4>
80002258:	00c12683          	lw	a3,12(sp)
8000225c:	0c06c263          	bltz	a3,80002320 <ant+0x6fc>
80002260:	00168713          	addi	a4,a3,1
80002264:	00812683          	lw	a3,8(sp)
80002268:	00f12423          	sw	a5,8(sp)
8000226c:	00178793          	addi	a5,a5,1
80002270:	00e12e23          	sw	a4,28(sp)
80002274:	02d12023          	sw	a3,32(sp)
80002278:	02e12223          	sw	a4,36(sp)
8000227c:	00f12c23          	sw	a5,24(sp)
80002280:	da1ff06f          	j	80002020 <ant+0x3fc>
80002284:	029706b3          	mul	a3,a4,s1
80002288:	0000a797          	auipc	a5,0xa
8000228c:	1cc78793          	addi	a5,a5,460 # 8000c454 <pix>
80002290:	0007a403          	lw	s0,0(a5)
80002294:	00e12223          	sw	a4,4(sp)
80002298:	00040593          	mv	a1,s0
8000229c:	00140513          	addi	a0,s0,1
800022a0:	fff68613          	addi	a2,a3,-1
800022a4:	00d12023          	sw	a3,0(sp)
800022a8:	05d010ef          	jal	ra,80003b04 <memmove>
800022ac:	00012683          	lw	a3,0(sp)
800022b0:	00412703          	lw	a4,4(sp)
800022b4:	00000793          	li	a5,0
800022b8:	00d05a63          	blez	a3,800022cc <ant+0x6a8>
800022bc:	00f40633          	add	a2,s0,a5
800022c0:	00060023          	sb	zero,0(a2)
800022c4:	00e787b3          	add	a5,a5,a4
800022c8:	fed7cae3          	blt	a5,a3,800022bc <ant+0x698>
800022cc:	00812683          	lw	a3,8(sp)
800022d0:	00168793          	addi	a5,a3,1
800022d4:	00268693          	addi	a3,a3,2
800022d8:	02d12023          	sw	a3,32(sp)
800022dc:	00c12683          	lw	a3,12(sp)
800022e0:	0296d863          	bge	a3,s1,80002310 <ant+0x6ec>
800022e4:	00c12683          	lw	a3,12(sp)
800022e8:	0406c863          	bltz	a3,80002338 <ant+0x714>
800022ec:	00168713          	addi	a4,a3,1
800022f0:	00f12423          	sw	a5,8(sp)
800022f4:	00178793          	addi	a5,a5,1
800022f8:	00e12e23          	sw	a4,28(sp)
800022fc:	02e12223          	sw	a4,36(sp)
80002300:	00f12c23          	sw	a5,24(sp)
80002304:	d1dff06f          	j	80002020 <ant+0x3fc>
80002308:	00812683          	lw	a3,8(sp)
8000230c:	02d12023          	sw	a3,32(sp)
80002310:	00f12423          	sw	a5,8(sp)
80002314:	00178793          	addi	a5,a5,1
80002318:	00f12c23          	sw	a5,24(sp)
8000231c:	cbdff06f          	j	80001fd8 <ant+0x3b4>
80002320:	00812683          	lw	a3,8(sp)
80002324:	00f12423          	sw	a5,8(sp)
80002328:	00178793          	addi	a5,a5,1
8000232c:	02d12023          	sw	a3,32(sp)
80002330:	00f12c23          	sw	a5,24(sp)
80002334:	e81ff06f          	j	800021b4 <ant+0x590>
80002338:	00f12423          	sw	a5,8(sp)
8000233c:	00178793          	addi	a5,a5,1
80002340:	00f12c23          	sw	a5,24(sp)
80002344:	e71ff06f          	j	800021b4 <ant+0x590>

80002348 <main>:
80002348:	fec10113          	addi	sp,sp,-20
8000234c:	00812623          	sw	s0,12(sp)
80002350:	00112823          	sw	ra,16(sp)
80002354:	00050413          	mv	s0,a0
80002358:	0e0010ef          	jal	ra,80003438 <ioe_init>
8000235c:	00044783          	lbu	a5,0(s0)
80002360:	00700713          	li	a4,7
80002364:	fcf78793          	addi	a5,a5,-49
80002368:	0ff7f793          	zext.b	a5,a5
8000236c:	08f76e63          	bltu	a4,a5,80002408 <main+0xc0>
80002370:	00003717          	auipc	a4,0x3
80002374:	5bc70713          	addi	a4,a4,1468 # 8000592c <minute+0xfbc>
80002378:	00279793          	slli	a5,a5,0x2
8000237c:	00e787b3          	add	a5,a5,a4
80002380:	0007a783          	lw	a5,0(a5)
80002384:	00e787b3          	add	a5,a5,a4
80002388:	00078067          	jr	a5
8000238c:	ac0ff0ef          	jal	ra,8000164c <donut>
80002390:	00003517          	auipc	a0,0x3
80002394:	58850513          	addi	a0,a0,1416 # 80005918 <minute+0xfa8>
80002398:	640010ef          	jal	ra,800039d8 <printf>
8000239c:	01d00413          	li	s0,29
800023a0:	00010593          	mv	a1,sp
800023a4:	00800513          	li	a0,8
800023a8:	0ec010ef          	jal	ra,80003494 <ioe_read>
800023ac:	00014783          	lbu	a5,0(sp)
800023b0:	00412703          	lw	a4,4(sp)
800023b4:	fe0786e3          	beqz	a5,800023a0 <main+0x58>
800023b8:	fe8714e3          	bne	a4,s0,800023a0 <main+0x58>
800023bc:	01012083          	lw	ra,16(sp)
800023c0:	00c12403          	lw	s0,12(sp)
800023c4:	00000513          	li	a0,0
800023c8:	01410113          	addi	sp,sp,20
800023cc:	00008067          	ret
800023d0:	2c1000ef          	jal	ra,80002e90 <bf>
800023d4:	fbdff06f          	j	80002390 <main+0x48>
800023d8:	84dff0ef          	jal	ra,80001c24 <ant>
800023dc:	fb5ff06f          	j	80002390 <main+0x48>
800023e0:	c31fd0ef          	jal	ra,80000010 <galton>
800023e4:	fadff06f          	j	80002390 <main+0x48>
800023e8:	920ff0ef          	jal	ra,80001508 <hanoi>
800023ec:	fa5ff06f          	j	80002390 <main+0x48>
800023f0:	c3dfe0ef          	jal	ra,8000102c <game_of_life>
800023f4:	f9dff06f          	j	80002390 <main+0x48>
800023f8:	becfe0ef          	jal	ra,800007e4 <aclock>
800023fc:	f95ff06f          	j	80002390 <main+0x48>
80002400:	078000ef          	jal	ra,80002478 <cmatrix>
80002404:	f8dff06f          	j	80002390 <main+0x48>
80002408:	00003517          	auipc	a0,0x3
8000240c:	48050513          	addi	a0,a0,1152 # 80005888 <minute+0xf18>
80002410:	5c8010ef          	jal	ra,800039d8 <printf>
80002414:	00003517          	auipc	a0,0x3
80002418:	49050513          	addi	a0,a0,1168 # 800058a4 <minute+0xf34>
8000241c:	5bc010ef          	jal	ra,800039d8 <printf>
80002420:	00003517          	auipc	a0,0x3
80002424:	49050513          	addi	a0,a0,1168 # 800058b0 <minute+0xf40>
80002428:	5b0010ef          	jal	ra,800039d8 <printf>
8000242c:	00003517          	auipc	a0,0x3
80002430:	49450513          	addi	a0,a0,1172 # 800058c0 <minute+0xf50>
80002434:	5a4010ef          	jal	ra,800039d8 <printf>
80002438:	00003517          	auipc	a0,0x3
8000243c:	49450513          	addi	a0,a0,1172 # 800058cc <minute+0xf5c>
80002440:	598010ef          	jal	ra,800039d8 <printf>
80002444:	00003517          	auipc	a0,0x3
80002448:	49c50513          	addi	a0,a0,1180 # 800058e0 <minute+0xf70>
8000244c:	58c010ef          	jal	ra,800039d8 <printf>
80002450:	00003517          	auipc	a0,0x3
80002454:	4a050513          	addi	a0,a0,1184 # 800058f0 <minute+0xf80>
80002458:	580010ef          	jal	ra,800039d8 <printf>
8000245c:	00003517          	auipc	a0,0x3
80002460:	4a450513          	addi	a0,a0,1188 # 80005900 <minute+0xf90>
80002464:	574010ef          	jal	ra,800039d8 <printf>
80002468:	00003517          	auipc	a0,0x3
8000246c:	4a450513          	addi	a0,a0,1188 # 8000590c <minute+0xf9c>
80002470:	568010ef          	jal	ra,800039d8 <printf>
80002474:	f1dff06f          	j	80002390 <main+0x48>

80002478 <cmatrix>:
80002478:	f8410113          	addi	sp,sp,-124
8000247c:	06b10793          	addi	a5,sp,107
80002480:	ff87f793          	andi	a5,a5,-8
80002484:	06812a23          	sw	s0,116(sp)
80002488:	06912823          	sw	s1,112(sp)
8000248c:	06112c23          	sw	ra,120(sp)
80002490:	04f12223          	sw	a5,68(sp)
80002494:	00000413          	li	s0,0
80002498:	00009497          	auipc	s1,0x9
8000249c:	41c48493          	addi	s1,s1,1052 # 8000b8b4 <buf.2>
800024a0:	14000793          	li	a5,320
800024a4:	04f12c23          	sw	a5,88(sp)
800024a8:	04c10593          	addi	a1,sp,76
800024ac:	00100793          	li	a5,1
800024b0:	00b00513          	li	a0,11
800024b4:	04812823          	sw	s0,80(sp)
800024b8:	04f12e23          	sw	a5,92(sp)
800024bc:	04012623          	sw	zero,76(sp)
800024c0:	04912a23          	sw	s1,84(sp)
800024c4:	06010023          	sb	zero,96(sp)
800024c8:	7e9000ef          	jal	ra,800034b0 <ioe_write>
800024cc:	00140413          	addi	s0,s0,1
800024d0:	0c800793          	li	a5,200
800024d4:	fcf416e3          	bne	s0,a5,800024a0 <cmatrix+0x28>
800024d8:	574010ef          	jal	ra,80003a4c <rand>
800024dc:	00050613          	mv	a2,a0
800024e0:	0000a497          	auipc	s1,0xa
800024e4:	8d448493          	addi	s1,s1,-1836 # 8000bdb4 <t>
800024e8:	03200413          	li	s0,50
800024ec:	00c12023          	sw	a2,0(sp)
800024f0:	55c010ef          	jal	ra,80003a4c <rand>
800024f4:	40a007b3          	neg	a5,a0
800024f8:	0287e7b3          	rem	a5,a5,s0
800024fc:	00448493          	addi	s1,s1,4
80002500:	0000a697          	auipc	a3,0xa
80002504:	9f468693          	addi	a3,a3,-1548 # 8000bef4 <buf.0>
80002508:	00012603          	lw	a2,0(sp)
8000250c:	fef4ae23          	sw	a5,-4(s1)
80002510:	fcd49ee3          	bne	s1,a3,800024ec <cmatrix+0x74>
80002514:	00006797          	auipc	a5,0x6
80002518:	39578793          	addi	a5,a5,917 # 800088a9 <last_c.1>
8000251c:	0007c703          	lbu	a4,0(a5)
80002520:	02700793          	li	a5,39
80002524:	14f70ae3          	beq	a4,a5,80002e78 <cmatrix+0xa00>
80002528:	00009717          	auipc	a4,0x9
8000252c:	34c70713          	addi	a4,a4,844 # 8000b874 <buf.0>
80002530:	00006697          	auipc	a3,0x6
80002534:	37968693          	addi	a3,a3,889 # 800088a9 <last_c.1>
80002538:	00e12023          	sw	a4,0(sp)
8000253c:	00f68023          	sb	a5,0(a3)
80002540:	00070793          	mv	a5,a4
80002544:	00336737          	lui	a4,0x336
80002548:	00009497          	auipc	s1,0x9
8000254c:	36c48493          	addi	s1,s1,876 # 8000b8b4 <buf.2>
80002550:	6cc70713          	addi	a4,a4,1740 # 3366cc <_entry_offset+0x3366cc>
80002554:	00e7a023          	sw	a4,0(a5)
80002558:	00478793          	addi	a5,a5,4
8000255c:	fef49ce3          	bne	s1,a5,80002554 <cmatrix+0xdc>
80002560:	02800713          	li	a4,40
80002564:	04e12623          	sw	a4,76(sp)
80002568:	04e12823          	sw	a4,80(sp)
8000256c:	00012703          	lw	a4,0(sp)
80002570:	00400793          	li	a5,4
80002574:	04c10593          	addi	a1,sp,76
80002578:	00b00513          	li	a0,11
8000257c:	00c12223          	sw	a2,4(sp)
80002580:	04e12a23          	sw	a4,84(sp)
80002584:	04f12c23          	sw	a5,88(sp)
80002588:	04f12e23          	sw	a5,92(sp)
8000258c:	06010023          	sb	zero,96(sp)
80002590:	721000ef          	jal	ra,800034b0 <ioe_write>
80002594:	00412603          	lw	a2,4(sp)
80002598:	01700413          	li	s0,23
8000259c:	04912423          	sw	s1,72(sp)
800025a0:	00260713          	addi	a4,a2,2
800025a4:	00a60793          	addi	a5,a2,10
800025a8:	00b60313          	addi	t1,a2,11
800025ac:	41f75593          	srai	a1,a4,0x1f
800025b0:	41f7d613          	srai	a2,a5,0x1f
800025b4:	41f35693          	srai	a3,t1,0x1f
800025b8:	01c6d693          	srli	a3,a3,0x1c
800025bc:	01c5d593          	srli	a1,a1,0x1c
800025c0:	01c65613          	srli	a2,a2,0x1c
800025c4:	00b70533          	add	a0,a4,a1
800025c8:	00c78733          	add	a4,a5,a2
800025cc:	00d307b3          	add	a5,t1,a3
800025d0:	00f57513          	andi	a0,a0,15
800025d4:	00f77713          	andi	a4,a4,15
800025d8:	00f7f793          	andi	a5,a5,15
800025dc:	40d787b3          	sub	a5,a5,a3
800025e0:	40b505b3          	sub	a1,a0,a1
800025e4:	40c70733          	sub	a4,a4,a2
800025e8:	00459693          	slli	a3,a1,0x4
800025ec:	00471713          	slli	a4,a4,0x4
800025f0:	00479793          	slli	a5,a5,0x4
800025f4:	0ff6f693          	zext.b	a3,a3
800025f8:	0ff77713          	zext.b	a4,a4
800025fc:	0ff7f793          	zext.b	a5,a5
80002600:	02d12e23          	sw	a3,60(sp)
80002604:	02e12c23          	sw	a4,56(sp)
80002608:	04f12023          	sw	a5,64(sp)
8000260c:	04812483          	lw	s1,72(sp)
80002610:	04f00793          	li	a5,79
80002614:	00f12223          	sw	a5,4(sp)
80002618:	434010ef          	jal	ra,80003a4c <rand>
8000261c:	04f00793          	li	a5,79
80002620:	02f567b3          	rem	a5,a0,a5
80002624:	01c00613          	li	a2,28
80002628:	00279713          	slli	a4,a5,0x2
8000262c:	00f12a23          	sw	a5,20(sp)
80002630:	00009797          	auipc	a5,0x9
80002634:	78478793          	addi	a5,a5,1924 # 8000bdb4 <t>
80002638:	00e786b3          	add	a3,a5,a4
8000263c:	0006a783          	lw	a5,0(a3)
80002640:	14f65c63          	bge	a2,a5,80002798 <cmatrix+0x320>
80002644:	00100793          	li	a5,1
80002648:	00f6a023          	sw	a5,0(a3)
8000264c:	fff00793          	li	a5,-1
80002650:	00f12623          	sw	a5,12(sp)
80002654:	02f12023          	sw	a5,32(sp)
80002658:	00100793          	li	a5,1
8000265c:	00f12423          	sw	a5,8(sp)
80002660:	ffe00793          	li	a5,-2
80002664:	00f12e23          	sw	a5,28(sp)
80002668:	00100793          	li	a5,1
8000266c:	00f12c23          	sw	a5,24(sp)
80002670:	ffe00313          	li	t1,-2
80002674:	00000793          	li	a5,0
80002678:	00012823          	sw	zero,16(sp)
8000267c:	30647463          	bgeu	s0,t1,80002984 <cmatrix+0x50c>
80002680:	00c12683          	lw	a3,12(sp)
80002684:	38d47863          	bgeu	s0,a3,80002a14 <cmatrix+0x59c>
80002688:	01012683          	lw	a3,16(sp)
8000268c:	40d47c63          	bgeu	s0,a3,80002aa4 <cmatrix+0x62c>
80002690:	00812783          	lw	a5,8(sp)
80002694:	06f46663          	bltu	s0,a5,80002700 <cmatrix+0x288>
80002698:	00006797          	auipc	a5,0x6
8000269c:	21178793          	addi	a5,a5,529 # 800088a9 <last_c.1>
800026a0:	0007c683          	lbu	a3,0(a5)
800026a4:	02000793          	li	a5,32
800026a8:	02f68263          	beq	a3,a5,800026cc <cmatrix+0x254>
800026ac:	00006697          	auipc	a3,0x6
800026b0:	1fd68693          	addi	a3,a3,509 # 800088a9 <last_c.1>
800026b4:	00f68023          	sb	a5,0(a3)
800026b8:	00009797          	auipc	a5,0x9
800026bc:	1bc78793          	addi	a5,a5,444 # 8000b874 <buf.0>
800026c0:	0007a023          	sw	zero,0(a5)
800026c4:	00478793          	addi	a5,a5,4
800026c8:	fe979ce3          	bne	a5,s1,800026c0 <cmatrix+0x248>
800026cc:	01812683          	lw	a3,24(sp)
800026d0:	04e12623          	sw	a4,76(sp)
800026d4:	00012703          	lw	a4,0(sp)
800026d8:	00400793          	li	a5,4
800026dc:	00269693          	slli	a3,a3,0x2
800026e0:	04c10593          	addi	a1,sp,76
800026e4:	00b00513          	li	a0,11
800026e8:	04d12823          	sw	a3,80(sp)
800026ec:	04e12a23          	sw	a4,84(sp)
800026f0:	04f12c23          	sw	a5,88(sp)
800026f4:	04f12e23          	sw	a5,92(sp)
800026f8:	06010023          	sb	zero,96(sp)
800026fc:	5b5000ef          	jal	ra,800034b0 <ioe_write>
80002700:	00412783          	lw	a5,4(sp)
80002704:	fff78793          	addi	a5,a5,-1
80002708:	00f12223          	sw	a5,4(sp)
8000270c:	f00796e3          	bnez	a5,80002618 <cmatrix+0x1a0>
80002710:	00100793          	li	a5,1
80002714:	00b00513          	li	a0,11
80002718:	04c10593          	addi	a1,sp,76
8000271c:	06f10023          	sb	a5,96(sp)
80002720:	04012623          	sw	zero,76(sp)
80002724:	04012823          	sw	zero,80(sp)
80002728:	04012a23          	sw	zero,84(sp)
8000272c:	04012c23          	sw	zero,88(sp)
80002730:	04012e23          	sw	zero,92(sp)
80002734:	57d000ef          	jal	ra,800034b0 <ioe_write>
80002738:	04412483          	lw	s1,68(sp)
8000273c:	00600513          	li	a0,6
80002740:	00048593          	mv	a1,s1
80002744:	551000ef          	jal	ra,80003494 <ioe_read>
80002748:	0004a783          	lw	a5,0(s1)
8000274c:	00018737          	lui	a4,0x18
80002750:	0044a683          	lw	a3,4(s1)
80002754:	6a070713          	addi	a4,a4,1696 # 186a0 <_entry_offset+0x186a0>
80002758:	00e78733          	add	a4,a5,a4
8000275c:	00f737b3          	sltu	a5,a4,a5
80002760:	00d787b3          	add	a5,a5,a3
80002764:	00e12423          	sw	a4,8(sp)
80002768:	00f12223          	sw	a5,4(sp)
8000276c:	00048593          	mv	a1,s1
80002770:	00600513          	li	a0,6
80002774:	521000ef          	jal	ra,80003494 <ioe_read>
80002778:	0044a783          	lw	a5,4(s1)
8000277c:	00412683          	lw	a3,4(sp)
80002780:	0004a703          	lw	a4,0(s1)
80002784:	fed7e4e3          	bltu	a5,a3,8000276c <cmatrix+0x2f4>
80002788:	e8f692e3          	bne	a3,a5,8000260c <cmatrix+0x194>
8000278c:	00812783          	lw	a5,8(sp)
80002790:	fcf76ee3          	bltu	a4,a5,8000276c <cmatrix+0x2f4>
80002794:	e79ff06f          	j	8000260c <cmatrix+0x194>
80002798:	00178593          	addi	a1,a5,1
8000279c:	fff78513          	addi	a0,a5,-1
800027a0:	ffe78313          	addi	t1,a5,-2
800027a4:	00b6a023          	sw	a1,0(a3)
800027a8:	ffd78693          	addi	a3,a5,-3
800027ac:	00b12c23          	sw	a1,24(sp)
800027b0:	00612e23          	sw	t1,28(sp)
800027b4:	02a12023          	sw	a0,32(sp)
800027b8:	ffb78613          	addi	a2,a5,-5
800027bc:	02d12223          	sw	a3,36(sp)
800027c0:	00a12623          	sw	a0,12(sp)
800027c4:	00f12823          	sw	a5,16(sp)
800027c8:	00b12423          	sw	a1,8(sp)
800027cc:	ffc78293          	addi	t0,a5,-4
800027d0:	08c46463          	bltu	s0,a2,80002858 <cmatrix+0x3e0>
800027d4:	00006697          	auipc	a3,0x6
800027d8:	0d568693          	addi	a3,a3,213 # 800088a9 <last_c.1>
800027dc:	0006c583          	lbu	a1,0(a3)
800027e0:	02000693          	li	a3,32
800027e4:	02d58263          	beq	a1,a3,80002808 <cmatrix+0x390>
800027e8:	00006597          	auipc	a1,0x6
800027ec:	0c158593          	addi	a1,a1,193 # 800088a9 <last_c.1>
800027f0:	00d58023          	sb	a3,0(a1)
800027f4:	00009697          	auipc	a3,0x9
800027f8:	08068693          	addi	a3,a3,128 # 8000b874 <buf.0>
800027fc:	0006a023          	sw	zero,0(a3)
80002800:	00468693          	addi	a3,a3,4
80002804:	fed49ce3          	bne	s1,a3,800027fc <cmatrix+0x384>
80002808:	02f12623          	sw	a5,44(sp)
8000280c:	00012783          	lw	a5,0(sp)
80002810:	00400693          	li	a3,4
80002814:	00261613          	slli	a2,a2,0x2
80002818:	04c10593          	addi	a1,sp,76
8000281c:	00b00513          	li	a0,11
80002820:	02512a23          	sw	t0,52(sp)
80002824:	02612823          	sw	t1,48(sp)
80002828:	04e12623          	sw	a4,76(sp)
8000282c:	02e12423          	sw	a4,40(sp)
80002830:	04f12a23          	sw	a5,84(sp)
80002834:	04c12823          	sw	a2,80(sp)
80002838:	04d12c23          	sw	a3,88(sp)
8000283c:	04d12e23          	sw	a3,92(sp)
80002840:	06010023          	sb	zero,96(sp)
80002844:	46d000ef          	jal	ra,800034b0 <ioe_write>
80002848:	02812703          	lw	a4,40(sp)
8000284c:	02c12783          	lw	a5,44(sp)
80002850:	03012303          	lw	t1,48(sp)
80002854:	03412283          	lw	t0,52(sp)
80002858:	08546863          	bltu	s0,t0,800028e8 <cmatrix+0x470>
8000285c:	03c12583          	lw	a1,60(sp)
80002860:	00006697          	auipc	a3,0x6
80002864:	04968693          	addi	a3,a3,73 # 800088a9 <last_c.1>
80002868:	00900613          	li	a2,9
8000286c:	0006c683          	lbu	a3,0(a3)
80002870:	54b66063          	bltu	a2,a1,80002db0 <cmatrix+0x938>
80002874:	02000593          	li	a1,32
80002878:	00000613          	li	a2,0
8000287c:	02b68263          	beq	a3,a1,800028a0 <cmatrix+0x428>
80002880:	00006697          	auipc	a3,0x6
80002884:	02968693          	addi	a3,a3,41 # 800088a9 <last_c.1>
80002888:	00b68023          	sb	a1,0(a3)
8000288c:	00009697          	auipc	a3,0x9
80002890:	fe868693          	addi	a3,a3,-24 # 8000b874 <buf.0>
80002894:	00c6a023          	sw	a2,0(a3)
80002898:	00468693          	addi	a3,a3,4
8000289c:	fe969ce3          	bne	a3,s1,80002894 <cmatrix+0x41c>
800028a0:	02f12623          	sw	a5,44(sp)
800028a4:	00012783          	lw	a5,0(sp)
800028a8:	00400693          	li	a3,4
800028ac:	00229293          	slli	t0,t0,0x2
800028b0:	04c10593          	addi	a1,sp,76
800028b4:	00b00513          	li	a0,11
800028b8:	02612823          	sw	t1,48(sp)
800028bc:	04e12623          	sw	a4,76(sp)
800028c0:	02e12423          	sw	a4,40(sp)
800028c4:	04f12a23          	sw	a5,84(sp)
800028c8:	04512823          	sw	t0,80(sp)
800028cc:	04d12c23          	sw	a3,88(sp)
800028d0:	04d12e23          	sw	a3,92(sp)
800028d4:	06010023          	sb	zero,96(sp)
800028d8:	3d9000ef          	jal	ra,800034b0 <ioe_write>
800028dc:	02812703          	lw	a4,40(sp)
800028e0:	02c12783          	lw	a5,44(sp)
800028e4:	03012303          	lw	t1,48(sp)
800028e8:	02412683          	lw	a3,36(sp)
800028ec:	d8d468e3          	bltu	s0,a3,8000267c <cmatrix+0x204>
800028f0:	00006617          	auipc	a2,0x6
800028f4:	fb960613          	addi	a2,a2,-71 # 800088a9 <last_c.1>
800028f8:	00064583          	lbu	a1,0(a2)
800028fc:	03c12603          	lw	a2,60(sp)
80002900:	00900693          	li	a3,9
80002904:	36c6e263          	bltu	a3,a2,80002c68 <cmatrix+0x7f0>
80002908:	02000693          	li	a3,32
8000290c:	00000613          	li	a2,0
80002910:	02d58263          	beq	a1,a3,80002934 <cmatrix+0x4bc>
80002914:	00006597          	auipc	a1,0x6
80002918:	f9558593          	addi	a1,a1,-107 # 800088a9 <last_c.1>
8000291c:	00d58023          	sb	a3,0(a1)
80002920:	00009697          	auipc	a3,0x9
80002924:	f5468693          	addi	a3,a3,-172 # 8000b874 <buf.0>
80002928:	00c6a023          	sw	a2,0(a3)
8000292c:	00468693          	addi	a3,a3,4
80002930:	fed49ce3          	bne	s1,a3,80002928 <cmatrix+0x4b0>
80002934:	02f12423          	sw	a5,40(sp)
80002938:	02412783          	lw	a5,36(sp)
8000293c:	00400693          	li	a3,4
80002940:	04c10593          	addi	a1,sp,76
80002944:	00279613          	slli	a2,a5,0x2
80002948:	00012783          	lw	a5,0(sp)
8000294c:	00b00513          	li	a0,11
80002950:	02612623          	sw	t1,44(sp)
80002954:	04e12623          	sw	a4,76(sp)
80002958:	02e12223          	sw	a4,36(sp)
8000295c:	04f12a23          	sw	a5,84(sp)
80002960:	04c12823          	sw	a2,80(sp)
80002964:	04d12c23          	sw	a3,88(sp)
80002968:	04d12e23          	sw	a3,92(sp)
8000296c:	06010023          	sb	zero,96(sp)
80002970:	341000ef          	jal	ra,800034b0 <ioe_write>
80002974:	02c12303          	lw	t1,44(sp)
80002978:	02412703          	lw	a4,36(sp)
8000297c:	02812783          	lw	a5,40(sp)
80002980:	d06460e3          	bltu	s0,t1,80002680 <cmatrix+0x208>
80002984:	03812583          	lw	a1,56(sp)
80002988:	00006697          	auipc	a3,0x6
8000298c:	f2168693          	addi	a3,a3,-223 # 800088a9 <last_c.1>
80002990:	00900613          	li	a2,9
80002994:	0006c683          	lbu	a3,0(a3)
80002998:	36b66a63          	bltu	a2,a1,80002d0c <cmatrix+0x894>
8000299c:	02000513          	li	a0,32
800029a0:	00000613          	li	a2,0
800029a4:	02a68263          	beq	a3,a0,800029c8 <cmatrix+0x550>
800029a8:	00006697          	auipc	a3,0x6
800029ac:	f0168693          	addi	a3,a3,-255 # 800088a9 <last_c.1>
800029b0:	00a68023          	sb	a0,0(a3)
800029b4:	00009697          	auipc	a3,0x9
800029b8:	ec068693          	addi	a3,a3,-320 # 8000b874 <buf.0>
800029bc:	00c6a023          	sw	a2,0(a3)
800029c0:	00468693          	addi	a3,a3,4
800029c4:	fed49ce3          	bne	s1,a3,800029bc <cmatrix+0x544>
800029c8:	02f12223          	sw	a5,36(sp)
800029cc:	01c12783          	lw	a5,28(sp)
800029d0:	00400693          	li	a3,4
800029d4:	04c10593          	addi	a1,sp,76
800029d8:	00279613          	slli	a2,a5,0x2
800029dc:	00012783          	lw	a5,0(sp)
800029e0:	00b00513          	li	a0,11
800029e4:	04e12623          	sw	a4,76(sp)
800029e8:	00e12e23          	sw	a4,28(sp)
800029ec:	04f12a23          	sw	a5,84(sp)
800029f0:	04d12c23          	sw	a3,88(sp)
800029f4:	04d12e23          	sw	a3,92(sp)
800029f8:	04c12823          	sw	a2,80(sp)
800029fc:	06010023          	sb	zero,96(sp)
80002a00:	2b1000ef          	jal	ra,800034b0 <ioe_write>
80002a04:	00c12683          	lw	a3,12(sp)
80002a08:	01c12703          	lw	a4,28(sp)
80002a0c:	02412783          	lw	a5,36(sp)
80002a10:	c6d46ce3          	bltu	s0,a3,80002688 <cmatrix+0x210>
80002a14:	03812583          	lw	a1,56(sp)
80002a18:	00006697          	auipc	a3,0x6
80002a1c:	e9168693          	addi	a3,a3,-367 # 800088a9 <last_c.1>
80002a20:	00900613          	li	a2,9
80002a24:	0006c683          	lbu	a3,0(a3)
80002a28:	0eb66e63          	bltu	a2,a1,80002b24 <cmatrix+0x6ac>
80002a2c:	02000593          	li	a1,32
80002a30:	00000613          	li	a2,0
80002a34:	02b68263          	beq	a3,a1,80002a58 <cmatrix+0x5e0>
80002a38:	00006697          	auipc	a3,0x6
80002a3c:	e7168693          	addi	a3,a3,-399 # 800088a9 <last_c.1>
80002a40:	00b68023          	sb	a1,0(a3)
80002a44:	00009697          	auipc	a3,0x9
80002a48:	e3068693          	addi	a3,a3,-464 # 8000b874 <buf.0>
80002a4c:	00c6a023          	sw	a2,0(a3)
80002a50:	00468693          	addi	a3,a3,4
80002a54:	fe969ce3          	bne	a3,s1,80002a4c <cmatrix+0x5d4>
80002a58:	00f12e23          	sw	a5,28(sp)
80002a5c:	02012783          	lw	a5,32(sp)
80002a60:	00400693          	li	a3,4
80002a64:	04c10593          	addi	a1,sp,76
80002a68:	00279613          	slli	a2,a5,0x2
80002a6c:	00012783          	lw	a5,0(sp)
80002a70:	00b00513          	li	a0,11
80002a74:	04e12623          	sw	a4,76(sp)
80002a78:	00e12623          	sw	a4,12(sp)
80002a7c:	04f12a23          	sw	a5,84(sp)
80002a80:	04d12c23          	sw	a3,88(sp)
80002a84:	04d12e23          	sw	a3,92(sp)
80002a88:	04c12823          	sw	a2,80(sp)
80002a8c:	06010023          	sb	zero,96(sp)
80002a90:	221000ef          	jal	ra,800034b0 <ioe_write>
80002a94:	01012683          	lw	a3,16(sp)
80002a98:	00c12703          	lw	a4,12(sp)
80002a9c:	01c12783          	lw	a5,28(sp)
80002aa0:	bed468e3          	bltu	s0,a3,80002690 <cmatrix+0x218>
80002aa4:	04012583          	lw	a1,64(sp)
80002aa8:	00006697          	auipc	a3,0x6
80002aac:	e0168693          	addi	a3,a3,-511 # 800088a9 <last_c.1>
80002ab0:	00900613          	li	a2,9
80002ab4:	0006c683          	lbu	a3,0(a3)
80002ab8:	10b66863          	bltu	a2,a1,80002bc8 <cmatrix+0x750>
80002abc:	02000593          	li	a1,32
80002ac0:	00000613          	li	a2,0
80002ac4:	02b68263          	beq	a3,a1,80002ae8 <cmatrix+0x670>
80002ac8:	00006697          	auipc	a3,0x6
80002acc:	de168693          	addi	a3,a3,-543 # 800088a9 <last_c.1>
80002ad0:	00b68023          	sb	a1,0(a3)
80002ad4:	00009697          	auipc	a3,0x9
80002ad8:	da068693          	addi	a3,a3,-608 # 8000b874 <buf.0>
80002adc:	00c6a023          	sw	a2,0(a3)
80002ae0:	00468693          	addi	a3,a3,4
80002ae4:	fed49ce3          	bne	s1,a3,80002adc <cmatrix+0x664>
80002ae8:	00279793          	slli	a5,a5,0x2
80002aec:	04f12823          	sw	a5,80(sp)
80002af0:	00012783          	lw	a5,0(sp)
80002af4:	00400693          	li	a3,4
80002af8:	04c10593          	addi	a1,sp,76
80002afc:	00b00513          	li	a0,11
80002b00:	04e12623          	sw	a4,76(sp)
80002b04:	00e12623          	sw	a4,12(sp)
80002b08:	04f12a23          	sw	a5,84(sp)
80002b0c:	04d12c23          	sw	a3,88(sp)
80002b10:	04d12e23          	sw	a3,92(sp)
80002b14:	06010023          	sb	zero,96(sp)
80002b18:	199000ef          	jal	ra,800034b0 <ioe_write>
80002b1c:	00c12703          	lw	a4,12(sp)
80002b20:	b71ff06f          	j	80002690 <cmatrix+0x218>
80002b24:	01412603          	lw	a2,20(sp)
80002b28:	02012583          	lw	a1,32(sp)
80002b2c:	02b605b3          	mul	a1,a2,a1
80002b30:	05e00613          	li	a2,94
80002b34:	02c5e5b3          	rem	a1,a1,a2
80002b38:	02158593          	addi	a1,a1,33
80002b3c:	0ff5f593          	zext.b	a1,a1
80002b40:	f0d58ce3          	beq	a1,a3,80002a58 <cmatrix+0x5e0>
80002b44:	02000693          	li	a3,32
80002b48:	30d58463          	beq	a1,a3,80002e50 <cmatrix+0x9d8>
80002b4c:	01900693          	li	a3,25
80002b50:	02d5d6b3          	divu	a3,a1,a3
80002b54:	00500513          	li	a0,5
80002b58:	00369613          	slli	a2,a3,0x3
80002b5c:	40d60633          	sub	a2,a2,a3
80002b60:	00561313          	slli	t1,a2,0x5
80002b64:	00660633          	add	a2,a2,t1
80002b68:	00c58633          	add	a2,a1,a2
80002b6c:	0ff67313          	zext.b	t1,a2
80002b70:	02a352b3          	divu	t0,t1,a0
80002b74:	00869693          	slli	a3,a3,0x8
80002b78:	00229393          	slli	t2,t0,0x2
80002b7c:	02a6c633          	div	a2,a3,a0
80002b80:	007283b3          	add	t2,t0,t2
80002b84:	40730333          	sub	t1,t1,t2
80002b88:	00829293          	slli	t0,t0,0x8
80002b8c:	0ff37693          	zext.b	a3,t1
80002b90:	00869693          	slli	a3,a3,0x8
80002b94:	00ff0337          	lui	t1,0xff0
80002b98:	02a2c2b3          	div	t0,t0,a0
80002b9c:	01061613          	slli	a2,a2,0x10
80002ba0:	00667633          	and	a2,a2,t1
80002ba4:	00010337          	lui	t1,0x10
80002ba8:	fff30313          	addi	t1,t1,-1 # ffff <_entry_offset+0xffff>
80002bac:	02a6c6b3          	div	a3,a3,a0
80002bb0:	00829513          	slli	a0,t0,0x8
80002bb4:	00657533          	and	a0,a0,t1
80002bb8:	00a66633          	or	a2,a2,a0
80002bbc:	0ff6f693          	zext.b	a3,a3
80002bc0:	00d66633          	or	a2,a2,a3
80002bc4:	e75ff06f          	j	80002a38 <cmatrix+0x5c0>
80002bc8:	01412603          	lw	a2,20(sp)
80002bcc:	02f605b3          	mul	a1,a2,a5
80002bd0:	05e00613          	li	a2,94
80002bd4:	02c5e5b3          	rem	a1,a1,a2
80002bd8:	02158593          	addi	a1,a1,33
80002bdc:	0ff5f593          	zext.b	a1,a1
80002be0:	f0d584e3          	beq	a1,a3,80002ae8 <cmatrix+0x670>
80002be4:	02000693          	li	a3,32
80002be8:	26d58863          	beq	a1,a3,80002e58 <cmatrix+0x9e0>
80002bec:	01900693          	li	a3,25
80002bf0:	02d5d6b3          	divu	a3,a1,a3
80002bf4:	00500513          	li	a0,5
80002bf8:	00369613          	slli	a2,a3,0x3
80002bfc:	40d60633          	sub	a2,a2,a3
80002c00:	00561313          	slli	t1,a2,0x5
80002c04:	00660633          	add	a2,a2,t1
80002c08:	00c58633          	add	a2,a1,a2
80002c0c:	0ff67313          	zext.b	t1,a2
80002c10:	02a352b3          	divu	t0,t1,a0
80002c14:	00869693          	slli	a3,a3,0x8
80002c18:	00229393          	slli	t2,t0,0x2
80002c1c:	02a6c633          	div	a2,a3,a0
80002c20:	007283b3          	add	t2,t0,t2
80002c24:	40730333          	sub	t1,t1,t2
80002c28:	00829293          	slli	t0,t0,0x8
80002c2c:	0ff37693          	zext.b	a3,t1
80002c30:	00869693          	slli	a3,a3,0x8
80002c34:	00ff0337          	lui	t1,0xff0
80002c38:	02a2c2b3          	div	t0,t0,a0
80002c3c:	01061613          	slli	a2,a2,0x10
80002c40:	00667633          	and	a2,a2,t1
80002c44:	00010337          	lui	t1,0x10
80002c48:	fff30313          	addi	t1,t1,-1 # ffff <_entry_offset+0xffff>
80002c4c:	02a6c6b3          	div	a3,a3,a0
80002c50:	00829513          	slli	a0,t0,0x8
80002c54:	00657533          	and	a0,a0,t1
80002c58:	00a66633          	or	a2,a2,a0
80002c5c:	0ff6f693          	zext.b	a3,a3
80002c60:	00d66633          	or	a2,a2,a3
80002c64:	e65ff06f          	j	80002ac8 <cmatrix+0x650>
80002c68:	02412603          	lw	a2,36(sp)
80002c6c:	01412683          	lw	a3,20(sp)
80002c70:	02c686b3          	mul	a3,a3,a2
80002c74:	05e00613          	li	a2,94
80002c78:	02c6e6b3          	rem	a3,a3,a2
80002c7c:	02168693          	addi	a3,a3,33
80002c80:	0ff6f693          	zext.b	a3,a3
80002c84:	cab688e3          	beq	a3,a1,80002934 <cmatrix+0x4bc>
80002c88:	02000613          	li	a2,32
80002c8c:	1cc68e63          	beq	a3,a2,80002e68 <cmatrix+0x9f0>
80002c90:	01900613          	li	a2,25
80002c94:	02c6d633          	divu	a2,a3,a2
80002c98:	00500513          	li	a0,5
80002c9c:	00361593          	slli	a1,a2,0x3
80002ca0:	40c585b3          	sub	a1,a1,a2
80002ca4:	00559293          	slli	t0,a1,0x5
80002ca8:	005585b3          	add	a1,a1,t0
80002cac:	00b685b3          	add	a1,a3,a1
80002cb0:	0ff5f593          	zext.b	a1,a1
80002cb4:	02a5d2b3          	divu	t0,a1,a0
80002cb8:	00861613          	slli	a2,a2,0x8
80002cbc:	00229393          	slli	t2,t0,0x2
80002cc0:	007283b3          	add	t2,t0,t2
80002cc4:	407585b3          	sub	a1,a1,t2
80002cc8:	00829293          	slli	t0,t0,0x8
80002ccc:	02a64633          	div	a2,a2,a0
80002cd0:	0ff5f593          	zext.b	a1,a1
80002cd4:	00859593          	slli	a1,a1,0x8
80002cd8:	00ff03b7          	lui	t2,0xff0
80002cdc:	02a2c2b3          	div	t0,t0,a0
80002ce0:	01061613          	slli	a2,a2,0x10
80002ce4:	00767633          	and	a2,a2,t2
80002ce8:	02a5c5b3          	div	a1,a1,a0
80002cec:	00010537          	lui	a0,0x10
80002cf0:	00829293          	slli	t0,t0,0x8
80002cf4:	fff50513          	addi	a0,a0,-1 # ffff <_entry_offset+0xffff>
80002cf8:	00a2f533          	and	a0,t0,a0
80002cfc:	00a66633          	or	a2,a2,a0
80002d00:	0ff5f593          	zext.b	a1,a1
80002d04:	00b66633          	or	a2,a2,a1
80002d08:	c0dff06f          	j	80002914 <cmatrix+0x49c>
80002d0c:	01412603          	lw	a2,20(sp)
80002d10:	01c12583          	lw	a1,28(sp)
80002d14:	02b60533          	mul	a0,a2,a1
80002d18:	05e00613          	li	a2,94
80002d1c:	02c56533          	rem	a0,a0,a2
80002d20:	02150513          	addi	a0,a0,33
80002d24:	0ff57513          	zext.b	a0,a0
80002d28:	cad500e3          	beq	a0,a3,800029c8 <cmatrix+0x550>
80002d2c:	02000693          	li	a3,32
80002d30:	12d50863          	beq	a0,a3,80002e60 <cmatrix+0x9e8>
80002d34:	01900693          	li	a3,25
80002d38:	02d556b3          	divu	a3,a0,a3
80002d3c:	00500313          	li	t1,5
80002d40:	00369613          	slli	a2,a3,0x3
80002d44:	40d60633          	sub	a2,a2,a3
80002d48:	00561593          	slli	a1,a2,0x5
80002d4c:	00b605b3          	add	a1,a2,a1
80002d50:	00b505b3          	add	a1,a0,a1
80002d54:	0ff5f593          	zext.b	a1,a1
80002d58:	0265d2b3          	divu	t0,a1,t1
80002d5c:	00869693          	slli	a3,a3,0x8
80002d60:	00229393          	slli	t2,t0,0x2
80002d64:	007283b3          	add	t2,t0,t2
80002d68:	407585b3          	sub	a1,a1,t2
80002d6c:	00829293          	slli	t0,t0,0x8
80002d70:	0266c633          	div	a2,a3,t1
80002d74:	0ff5f593          	zext.b	a1,a1
80002d78:	00859593          	slli	a1,a1,0x8
80002d7c:	0262c6b3          	div	a3,t0,t1
80002d80:	01061613          	slli	a2,a2,0x10
80002d84:	00ff02b7          	lui	t0,0xff0
80002d88:	00567633          	and	a2,a2,t0
80002d8c:	0265c5b3          	div	a1,a1,t1
80002d90:	00010337          	lui	t1,0x10
80002d94:	00869693          	slli	a3,a3,0x8
80002d98:	fff30313          	addi	t1,t1,-1 # ffff <_entry_offset+0xffff>
80002d9c:	0066f6b3          	and	a3,a3,t1
80002da0:	00d66633          	or	a2,a2,a3
80002da4:	0ff5f593          	zext.b	a1,a1
80002da8:	00b66633          	or	a2,a2,a1
80002dac:	bfdff06f          	j	800029a8 <cmatrix+0x530>
80002db0:	01412603          	lw	a2,20(sp)
80002db4:	025605b3          	mul	a1,a2,t0
80002db8:	05e00613          	li	a2,94
80002dbc:	02c5e5b3          	rem	a1,a1,a2
80002dc0:	02158593          	addi	a1,a1,33
80002dc4:	0ff5f593          	zext.b	a1,a1
80002dc8:	acd58ce3          	beq	a1,a3,800028a0 <cmatrix+0x428>
80002dcc:	02000693          	li	a3,32
80002dd0:	0ad58063          	beq	a1,a3,80002e70 <cmatrix+0x9f8>
80002dd4:	01900093          	li	ra,25
80002dd8:	0215d0b3          	divu	ra,a1,ra
80002ddc:	00500513          	li	a0,5
80002de0:	00309693          	slli	a3,ra,0x3
80002de4:	401686b3          	sub	a3,a3,ra
80002de8:	00569613          	slli	a2,a3,0x5
80002dec:	00c686b3          	add	a3,a3,a2
80002df0:	00d586b3          	add	a3,a1,a3
80002df4:	0ff6f693          	zext.b	a3,a3
80002df8:	02a6d3b3          	divu	t2,a3,a0
80002dfc:	00809093          	slli	ra,ra,0x8
80002e00:	00239613          	slli	a2,t2,0x2
80002e04:	00c38633          	add	a2,t2,a2
80002e08:	40c686b3          	sub	a3,a3,a2
80002e0c:	00839393          	slli	t2,t2,0x8
80002e10:	02a0c0b3          	div	ra,ra,a0
80002e14:	0ff6f693          	zext.b	a3,a3
80002e18:	00869613          	slli	a2,a3,0x8
80002e1c:	00ff06b7          	lui	a3,0xff0
80002e20:	02a3c3b3          	div	t2,t2,a0
80002e24:	01009093          	slli	ra,ra,0x10
80002e28:	00d0f6b3          	and	a3,ra,a3
80002e2c:	02a64633          	div	a2,a2,a0
80002e30:	00010537          	lui	a0,0x10
80002e34:	00839393          	slli	t2,t2,0x8
80002e38:	fff50513          	addi	a0,a0,-1 # ffff <_entry_offset+0xffff>
80002e3c:	00a3f3b3          	and	t2,t2,a0
80002e40:	0076e6b3          	or	a3,a3,t2
80002e44:	0ff67613          	zext.b	a2,a2
80002e48:	00c6e633          	or	a2,a3,a2
80002e4c:	a35ff06f          	j	80002880 <cmatrix+0x408>
80002e50:	00000613          	li	a2,0
80002e54:	be5ff06f          	j	80002a38 <cmatrix+0x5c0>
80002e58:	00000613          	li	a2,0
80002e5c:	c6dff06f          	j	80002ac8 <cmatrix+0x650>
80002e60:	00000613          	li	a2,0
80002e64:	b45ff06f          	j	800029a8 <cmatrix+0x530>
80002e68:	00000613          	li	a2,0
80002e6c:	aa9ff06f          	j	80002914 <cmatrix+0x49c>
80002e70:	00000613          	li	a2,0
80002e74:	a0dff06f          	j	80002880 <cmatrix+0x408>
80002e78:	00009797          	auipc	a5,0x9
80002e7c:	9fc78793          	addi	a5,a5,-1540 # 8000b874 <buf.0>
80002e80:	00f12023          	sw	a5,0(sp)
80002e84:	00009497          	auipc	s1,0x9
80002e88:	a3048493          	addi	s1,s1,-1488 # 8000b8b4 <buf.2>
80002e8c:	ed4ff06f          	j	80002560 <cmatrix+0xe8>

80002e90 <bf>:
80002e90:	fc810113          	addi	sp,sp,-56
80002e94:	00c00513          	li	a0,12
80002e98:	02112a23          	sw	ra,52(sp)
80002e9c:	02812823          	sw	s0,48(sp)
80002ea0:	02912623          	sw	s1,44(sp)
80002ea4:	3dd000ef          	jal	ra,80003a80 <malloc>
80002ea8:	00c00613          	li	a2,12
80002eac:	00000593          	li	a1,0
80002eb0:	00a12823          	sw	a0,16(sp)
80002eb4:	00000413          	li	s0,0
80002eb8:	42d000ef          	jal	ra,80003ae4 <memset>
80002ebc:	00009497          	auipc	s1,0x9
80002ec0:	07848493          	addi	s1,s1,120 # 8000bf34 <buf.4>
80002ec4:	14000793          	li	a5,320
80002ec8:	02f12023          	sw	a5,32(sp)
80002ecc:	01410593          	addi	a1,sp,20
80002ed0:	00100793          	li	a5,1
80002ed4:	00b00513          	li	a0,11
80002ed8:	00812c23          	sw	s0,24(sp)
80002edc:	02f12223          	sw	a5,36(sp)
80002ee0:	00012a23          	sw	zero,20(sp)
80002ee4:	00912e23          	sw	s1,28(sp)
80002ee8:	02010423          	sb	zero,40(sp)
80002eec:	5c4000ef          	jal	ra,800034b0 <ioe_write>
80002ef0:	00140413          	addi	s0,s0,1
80002ef4:	0c800793          	li	a5,200
80002ef8:	fcf416e3          	bne	s0,a5,80002ec4 <bf+0x34>
80002efc:	00003497          	auipc	s1,0x3
80002f00:	a5148493          	addi	s1,s1,-1455 # 8000594d <minute+0xfdd>
80002f04:	00000413          	li	s0,0
80002f08:	02000693          	li	a3,32
80002f0c:	00812423          	sw	s0,8(sp)
80002f10:	00012623          	sw	zero,12(sp)
80002f14:	00048413          	mv	s0,s1
80002f18:	00012023          	sw	zero,0(sp)
80002f1c:	00068493          	mv	s1,a3
80002f20:	05b00293          	li	t0,91
80002f24:	00140413          	addi	s0,s0,1
80002f28:	06048663          	beqz	s1,80002f94 <bf+0x104>
80002f2c:	00548c63          	beq	s1,t0,80002f44 <bf+0xb4>
80002f30:	0e92fa63          	bgeu	t0,s1,80003024 <bf+0x194>
80002f34:	05d00793          	li	a5,93
80002f38:	04f49863          	bne	s1,a5,80002f88 <bf+0xf8>
80002f3c:	00812783          	lw	a5,8(sp)
80002f40:	04078463          	beqz	a5,80002f88 <bf+0xf8>
80002f44:	00c00513          	li	a0,12
80002f48:	339000ef          	jal	ra,80003a80 <malloc>
80002f4c:	40050663          	beqz	a0,80003358 <bf+0x4c8>
80002f50:	00c00613          	li	a2,12
80002f54:	00000593          	li	a1,0
80002f58:	00a12223          	sw	a0,4(sp)
80002f5c:	389000ef          	jal	ra,80003ae4 <memset>
80002f60:	00012703          	lw	a4,0(sp)
80002f64:	00412783          	lw	a5,4(sp)
80002f68:	05b00293          	li	t0,91
80002f6c:	0e070e63          	beqz	a4,80003068 <bf+0x1d8>
80002f70:	00f72223          	sw	a5,4(a4)
80002f74:	00978023          	sb	s1,0(a5)
80002f78:	0c548c63          	beq	s1,t0,80003050 <bf+0x1c0>
80002f7c:	05d00613          	li	a2,93
80002f80:	00f12023          	sw	a5,0(sp)
80002f84:	08c48063          	beq	s1,a2,80003004 <bf+0x174>
80002f88:	00044483          	lbu	s1,0(s0)
80002f8c:	00140413          	addi	s0,s0,1
80002f90:	f8049ee3          	bnez	s1,80002f2c <bf+0x9c>
80002f94:	00040493          	mv	s1,s0
80002f98:	00812403          	lw	s0,8(sp)
80002f9c:	02000693          	li	a3,32
80002fa0:	00040c63          	beqz	s0,80002fb8 <bf+0x128>
80002fa4:	00040793          	mv	a5,s0
80002fa8:	00842403          	lw	s0,8(s0)
80002fac:	0007a423          	sw	zero,8(a5)
80002fb0:	00d78023          	sb	a3,0(a5)
80002fb4:	fe0418e3          	bnez	s0,80002fa4 <bf+0x114>
80002fb8:	00c12683          	lw	a3,12(sp)
80002fbc:	01012703          	lw	a4,16(sp)
80002fc0:	00005797          	auipc	a5,0x5
80002fc4:	75878793          	addi	a5,a5,1880 # 80008718 <minute+0x3da8>
80002fc8:	00068413          	mv	s0,a3
80002fcc:	38068063          	beqz	a3,8000334c <bf+0x4bc>
80002fd0:	00070693          	mv	a3,a4
80002fd4:	00048713          	mv	a4,s1
80002fd8:	00068493          	mv	s1,a3
80002fdc:	00044683          	lbu	a3,0(s0)
80002fe0:	03200613          	li	a2,50
80002fe4:	fd568693          	addi	a3,a3,-43 # feffd5 <_entry_offset+0xfeffd5>
80002fe8:	0ff6f693          	zext.b	a3,a3
80002fec:	08d66863          	bltu	a2,a3,8000307c <bf+0x1ec>
80002ff0:	00269693          	slli	a3,a3,0x2
80002ff4:	00f686b3          	add	a3,a3,a5
80002ff8:	0006a683          	lw	a3,0(a3)
80002ffc:	00f686b3          	add	a3,a3,a5
80003000:	00068067          	jr	a3
80003004:	00812703          	lw	a4,8(sp)
80003008:	00012683          	lw	a3,0(sp)
8000300c:	00044483          	lbu	s1,0(s0)
80003010:	00e7a423          	sw	a4,8(a5)
80003014:	00872783          	lw	a5,8(a4)
80003018:	00d72423          	sw	a3,8(a4)
8000301c:	00f12423          	sw	a5,8(sp)
80003020:	f6dff06f          	j	80002f8c <bf+0xfc>
80003024:	fd548613          	addi	a2,s1,-43
80003028:	0ff67613          	zext.b	a2,a2
8000302c:	01300793          	li	a5,19
80003030:	f4c7ece3          	bltu	a5,a2,80002f88 <bf+0xf8>
80003034:	000a07b7          	lui	a5,0xa0
80003038:	00f78793          	addi	a5,a5,15 # a000f <_entry_offset+0xa000f>
8000303c:	00c7d7b3          	srl	a5,a5,a2
80003040:	0017f793          	andi	a5,a5,1
80003044:	f00790e3          	bnez	a5,80002f44 <bf+0xb4>
80003048:	00044483          	lbu	s1,0(s0)
8000304c:	f41ff06f          	j	80002f8c <bf+0xfc>
80003050:	00812703          	lw	a4,8(sp)
80003054:	00044483          	lbu	s1,0(s0)
80003058:	00f12423          	sw	a5,8(sp)
8000305c:	00e7a423          	sw	a4,8(a5)
80003060:	00f12023          	sw	a5,0(sp)
80003064:	f29ff06f          	j	80002f8c <bf+0xfc>
80003068:	00f12623          	sw	a5,12(sp)
8000306c:	f09ff06f          	j	80002f74 <bf+0xe4>
80003070:	0004c683          	lbu	a3,0(s1)
80003074:	00168693          	addi	a3,a3,1
80003078:	00d48023          	sb	a3,0(s1)
8000307c:	00442403          	lw	s0,4(s0)
80003080:	f4041ee3          	bnez	s0,80002fdc <bf+0x14c>
80003084:	01012783          	lw	a5,16(sp)
80003088:	2a078e63          	beqz	a5,80003344 <bf+0x4b4>
8000308c:	01012403          	lw	s0,16(sp)
80003090:	00040513          	mv	a0,s0
80003094:	00442403          	lw	s0,4(s0)
80003098:	249000ef          	jal	ra,80003ae0 <free>
8000309c:	fe041ae3          	bnez	s0,80003090 <bf+0x200>
800030a0:	00c12783          	lw	a5,12(sp)
800030a4:	00078c63          	beqz	a5,800030bc <bf+0x22c>
800030a8:	00078413          	mv	s0,a5
800030ac:	00040513          	mv	a0,s0
800030b0:	00442403          	lw	s0,4(s0)
800030b4:	22d000ef          	jal	ra,80003ae0 <free>
800030b8:	fe041ae3          	bnez	s0,800030ac <bf+0x21c>
800030bc:	03412083          	lw	ra,52(sp)
800030c0:	03012403          	lw	s0,48(sp)
800030c4:	02c12483          	lw	s1,44(sp)
800030c8:	03810113          	addi	sp,sp,56
800030cc:	00008067          	ret
800030d0:	0004c683          	lbu	a3,0(s1)
800030d4:	fa0684e3          	beqz	a3,8000307c <bf+0x1ec>
800030d8:	00842403          	lw	s0,8(s0)
800030dc:	00442403          	lw	s0,4(s0)
800030e0:	ee041ee3          	bnez	s0,80002fdc <bf+0x14c>
800030e4:	fa1ff06f          	j	80003084 <bf+0x1f4>
800030e8:	0004c683          	lbu	a3,0(s1)
800030ec:	f80698e3          	bnez	a3,8000307c <bf+0x1ec>
800030f0:	00842403          	lw	s0,8(s0)
800030f4:	fe9ff06f          	j	800030dc <bf+0x24c>
800030f8:	0044a683          	lw	a3,4(s1)
800030fc:	08068c63          	beqz	a3,80003194 <bf+0x304>
80003100:	00068493          	mv	s1,a3
80003104:	00442403          	lw	s0,4(s0)
80003108:	ec041ae3          	bnez	s0,80002fdc <bf+0x14c>
8000310c:	f79ff06f          	j	80003084 <bf+0x1f4>
80003110:	0084a483          	lw	s1,8(s1)
80003114:	f60494e3          	bnez	s1,8000307c <bf+0x1ec>
80003118:	00005517          	auipc	a0,0x5
8000311c:	5ec50513          	addi	a0,a0,1516 # 80008704 <minute+0x3d94>
80003120:	0b9000ef          	jal	ra,800039d8 <printf>
80003124:	00100513          	li	a0,1
80003128:	250000ef          	jal	ra,80003378 <halt>
8000312c:	0004c583          	lbu	a1,0(s1)
80003130:	00a00693          	li	a3,10
80003134:	08d58e63          	beq	a1,a3,800031d0 <bf+0x340>
80003138:	00009317          	auipc	t1,0x9
8000313c:	32030313          	addi	t1,t1,800 # 8000c458 <x.2>
80003140:	00032683          	lw	a3,0(t1)
80003144:	0016f613          	andi	a2,a3,1
80003148:	0a060863          	beqz	a2,800031f8 <bf+0x368>
8000314c:	00442403          	lw	s0,4(s0)
80003150:	00168693          	addi	a3,a3,1
80003154:	00d32023          	sw	a3,0(t1)
80003158:	e80412e3          	bnez	s0,80002fdc <bf+0x14c>
8000315c:	f29ff06f          	j	80003084 <bf+0x1f4>
80003160:	0004c683          	lbu	a3,0(s1)
80003164:	fff68693          	addi	a3,a3,-1
80003168:	00d48023          	sb	a3,0(s1)
8000316c:	00442403          	lw	s0,4(s0)
80003170:	e60416e3          	bnez	s0,80002fdc <bf+0x14c>
80003174:	f11ff06f          	j	80003084 <bf+0x1f4>
80003178:	00074683          	lbu	a3,0(a4)
8000317c:	00170713          	addi	a4,a4,1
80003180:	ee068ee3          	beqz	a3,8000307c <bf+0x1ec>
80003184:	00d48023          	sb	a3,0(s1)
80003188:	00442403          	lw	s0,4(s0)
8000318c:	e40418e3          	bnez	s0,80002fdc <bf+0x14c>
80003190:	ef5ff06f          	j	80003084 <bf+0x1f4>
80003194:	00c00513          	li	a0,12
80003198:	00e12023          	sw	a4,0(sp)
8000319c:	0e5000ef          	jal	ra,80003a80 <malloc>
800031a0:	00a4a223          	sw	a0,4(s1)
800031a4:	1a050a63          	beqz	a0,80003358 <bf+0x4c8>
800031a8:	00c00613          	li	a2,12
800031ac:	00000593          	li	a1,0
800031b0:	135000ef          	jal	ra,80003ae4 <memset>
800031b4:	0044a683          	lw	a3,4(s1)
800031b8:	00012703          	lw	a4,0(sp)
800031bc:	00005797          	auipc	a5,0x5
800031c0:	55c78793          	addi	a5,a5,1372 # 80008718 <minute+0x3da8>
800031c4:	0096a423          	sw	s1,8(a3)
800031c8:	00068493          	mv	s1,a3
800031cc:	f39ff06f          	j	80003104 <bf+0x274>
800031d0:	00009617          	auipc	a2,0x9
800031d4:	28c60613          	addi	a2,a2,652 # 8000c45c <y.3>
800031d8:	00062683          	lw	a3,0(a2)
800031dc:	00442403          	lw	s0,4(s0)
800031e0:	00009597          	auipc	a1,0x9
800031e4:	2605ac23          	sw	zero,632(a1) # 8000c458 <x.2>
800031e8:	00168693          	addi	a3,a3,1
800031ec:	00d62023          	sw	a3,0(a2)
800031f0:	de0416e3          	bnez	s0,80002fdc <bf+0x14c>
800031f4:	e91ff06f          	j	80003084 <bf+0x1f4>
800031f8:	00005397          	auipc	t2,0x5
800031fc:	6b238393          	addi	t2,t2,1714 # 800088aa <last_c.1>
80003200:	0003c083          	lbu	ra,0(t2)
80003204:	01f6d513          	srli	a0,a3,0x1f
80003208:	00d50533          	add	a0,a0,a3
8000320c:	00009297          	auipc	t0,0x9
80003210:	2502a283          	lw	t0,592(t0) # 8000c45c <y.3>
80003214:	40155513          	srai	a0,a0,0x1
80003218:	12b08063          	beq	ra,a1,80003338 <bf+0x4a8>
8000321c:	00b38023          	sb	a1,0(t2)
80003220:	02000693          	li	a3,32
80003224:	06d58e63          	beq	a1,a3,800032a0 <bf+0x410>
80003228:	01900613          	li	a2,25
8000322c:	02c5d633          	divu	a2,a1,a2
80003230:	00500393          	li	t2,5
80003234:	00361693          	slli	a3,a2,0x3
80003238:	40c686b3          	sub	a3,a3,a2
8000323c:	00569093          	slli	ra,a3,0x5
80003240:	001686b3          	add	a3,a3,ra
80003244:	00d586b3          	add	a3,a1,a3
80003248:	0ff6f693          	zext.b	a3,a3
8000324c:	0276d5b3          	divu	a1,a3,t2
80003250:	00861613          	slli	a2,a2,0x8
80003254:	00259093          	slli	ra,a1,0x2
80003258:	001580b3          	add	ra,a1,ra
8000325c:	401686b3          	sub	a3,a3,ra
80003260:	00859593          	slli	a1,a1,0x8
80003264:	02764633          	div	a2,a2,t2
80003268:	0ff6f693          	zext.b	a3,a3
8000326c:	00869693          	slli	a3,a3,0x8
80003270:	00ff00b7          	lui	ra,0xff0
80003274:	0275c5b3          	div	a1,a1,t2
80003278:	01061613          	slli	a2,a2,0x10
8000327c:	00167633          	and	a2,a2,ra
80003280:	0276c6b3          	div	a3,a3,t2
80003284:	000103b7          	lui	t2,0x10
80003288:	00859593          	slli	a1,a1,0x8
8000328c:	fff38393          	addi	t2,t2,-1 # ffff <_entry_offset+0xffff>
80003290:	0075f5b3          	and	a1,a1,t2
80003294:	00b66633          	or	a2,a2,a1
80003298:	0ff6f693          	zext.b	a3,a3
8000329c:	00d66633          	or	a2,a2,a3
800032a0:	00009397          	auipc	t2,0x9
800032a4:	c5438393          	addi	t2,t2,-940 # 8000bef4 <buf.0>
800032a8:	00038693          	mv	a3,t2
800032ac:	00009597          	auipc	a1,0x9
800032b0:	c8858593          	addi	a1,a1,-888 # 8000bf34 <buf.4>
800032b4:	00c6a023          	sw	a2,0(a3)
800032b8:	00468693          	addi	a3,a3,4
800032bc:	feb69ce3          	bne	a3,a1,800032b4 <bf+0x424>
800032c0:	00251613          	slli	a2,a0,0x2
800032c4:	00400693          	li	a3,4
800032c8:	00229293          	slli	t0,t0,0x2
800032cc:	01410593          	addi	a1,sp,20
800032d0:	00b00513          	li	a0,11
800032d4:	00e12023          	sw	a4,0(sp)
800032d8:	00c12a23          	sw	a2,20(sp)
800032dc:	00512c23          	sw	t0,24(sp)
800032e0:	00712e23          	sw	t2,28(sp)
800032e4:	02d12023          	sw	a3,32(sp)
800032e8:	02d12223          	sw	a3,36(sp)
800032ec:	02010423          	sb	zero,40(sp)
800032f0:	1c0000ef          	jal	ra,800034b0 <ioe_write>
800032f4:	00100693          	li	a3,1
800032f8:	01410593          	addi	a1,sp,20
800032fc:	00b00513          	li	a0,11
80003300:	02d10423          	sb	a3,40(sp)
80003304:	00012a23          	sw	zero,20(sp)
80003308:	00012c23          	sw	zero,24(sp)
8000330c:	00012e23          	sw	zero,28(sp)
80003310:	02012023          	sw	zero,32(sp)
80003314:	02012223          	sw	zero,36(sp)
80003318:	198000ef          	jal	ra,800034b0 <ioe_write>
8000331c:	00009317          	auipc	t1,0x9
80003320:	13c30313          	addi	t1,t1,316 # 8000c458 <x.2>
80003324:	00032683          	lw	a3,0(t1)
80003328:	00012703          	lw	a4,0(sp)
8000332c:	00005797          	auipc	a5,0x5
80003330:	3ec78793          	addi	a5,a5,1004 # 80008718 <minute+0x3da8>
80003334:	e19ff06f          	j	8000314c <bf+0x2bc>
80003338:	00009397          	auipc	t2,0x9
8000333c:	bbc38393          	addi	t2,t2,-1092 # 8000bef4 <buf.0>
80003340:	f81ff06f          	j	800032c0 <bf+0x430>
80003344:	00c12403          	lw	s0,12(sp)
80003348:	d65ff06f          	j	800030ac <bf+0x21c>
8000334c:	01012783          	lw	a5,16(sp)
80003350:	d2079ee3          	bnez	a5,8000308c <bf+0x1fc>
80003354:	d69ff06f          	j	800030bc <bf+0x22c>
80003358:	00005517          	auipc	a0,0x5
8000335c:	39050513          	addi	a0,a0,912 # 800086e8 <minute+0x3d78>
80003360:	678000ef          	jal	ra,800039d8 <printf>
80003364:	00100513          	li	a0,1
80003368:	010000ef          	jal	ra,80003378 <halt>

8000336c <putch>:
8000336c:	a00007b7          	lui	a5,0xa0000
80003370:	3ea78c23          	sb	a0,1016(a5) # a00003f8 <_end+0x1ffeb3f8>
80003374:	00008067          	ret

80003378 <halt>:
80003378:	00050513          	mv	a0,a0
8000337c:	00100073          	ebreak
80003380:	0000006f          	j	80003380 <halt+0x8>

80003384 <_trm_init>:
80003384:	ff410113          	addi	sp,sp,-12
80003388:	00005517          	auipc	a0,0x5
8000338c:	45c50513          	addi	a0,a0,1116 # 800087e4 <mainargs>
80003390:	00112423          	sw	ra,8(sp)
80003394:	fb5fe0ef          	jal	ra,80002348 <main>
80003398:	00050513          	mv	a0,a0
8000339c:	00100073          	ebreak
800033a0:	0000006f          	j	800033a0 <_trm_init+0x1c>

800033a4 <__am_timer_config>:
800033a4:	00100793          	li	a5,1
800033a8:	00f50023          	sb	a5,0(a0)
800033ac:	00f500a3          	sb	a5,1(a0)
800033b0:	00008067          	ret

800033b4 <__am_input_config>:
800033b4:	00100793          	li	a5,1
800033b8:	00f50023          	sb	a5,0(a0)
800033bc:	00008067          	ret

800033c0 <__am_uart_config>:
800033c0:	00050023          	sb	zero,0(a0)
800033c4:	00008067          	ret

800033c8 <__am_net_config>:
800033c8:	00050023          	sb	zero,0(a0)
800033cc:	00008067          	ret

800033d0 <fail>:
800033d0:	ff410113          	addi	sp,sp,-12
800033d4:	00812223          	sw	s0,4(sp)
800033d8:	00112423          	sw	ra,8(sp)
800033dc:	00005417          	auipc	s0,0x5
800033e0:	44840413          	addi	s0,s0,1096 # 80008824 <mainargs+0x40>
800033e4:	04100513          	li	a0,65
800033e8:	00140413          	addi	s0,s0,1
800033ec:	f81ff0ef          	jal	ra,8000336c <putch>
800033f0:	00044503          	lbu	a0,0(s0)
800033f4:	fe051ae3          	bnez	a0,800033e8 <fail+0x18>
800033f8:	00005417          	auipc	s0,0x5
800033fc:	43840413          	addi	s0,s0,1080 # 80008830 <mainargs+0x4c>
80003400:	06100513          	li	a0,97
80003404:	00140413          	addi	s0,s0,1
80003408:	f65ff0ef          	jal	ra,8000336c <putch>
8000340c:	00044503          	lbu	a0,0(s0)
80003410:	fe051ae3          	bnez	a0,80003404 <fail+0x34>
80003414:	00005417          	auipc	s0,0x5
80003418:	43840413          	addi	s0,s0,1080 # 8000884c <mainargs+0x68>
8000341c:	02000513          	li	a0,32
80003420:	00140413          	addi	s0,s0,1
80003424:	f49ff0ef          	jal	ra,8000336c <putch>
80003428:	00044503          	lbu	a0,0(s0)
8000342c:	fe051ae3          	bnez	a0,80003420 <fail+0x50>
80003430:	00100513          	li	a0,1
80003434:	f45ff0ef          	jal	ra,80003378 <halt>

80003438 <ioe_init>:
80003438:	ff410113          	addi	sp,sp,-12
8000343c:	00112423          	sw	ra,8(sp)
80003440:	00005797          	auipc	a5,0x5
80003444:	48478793          	addi	a5,a5,1156 # 800088c4 <lut>
80003448:	00005697          	auipc	a3,0x5
8000344c:	67c68693          	addi	a3,a3,1660 # 80008ac4 <next>
80003450:	00000617          	auipc	a2,0x0
80003454:	f8060613          	addi	a2,a2,-128 # 800033d0 <fail>
80003458:	00c0006f          	j	80003464 <ioe_init+0x2c>
8000345c:	00478793          	addi	a5,a5,4
80003460:	00d78c63          	beq	a5,a3,80003478 <ioe_init+0x40>
80003464:	0007a703          	lw	a4,0(a5)
80003468:	fe071ae3          	bnez	a4,8000345c <ioe_init+0x24>
8000346c:	00c7a023          	sw	a2,0(a5)
80003470:	00478793          	addi	a5,a5,4
80003474:	fed798e3          	bne	a5,a3,80003464 <ioe_init+0x2c>
80003478:	11c000ef          	jal	ra,80003594 <__am_gpu_init>
8000347c:	050000ef          	jal	ra,800034cc <__am_timer_init>
80003480:	2a4000ef          	jal	ra,80003724 <__am_audio_init>
80003484:	00812083          	lw	ra,8(sp)
80003488:	00100513          	li	a0,1
8000348c:	00c10113          	addi	sp,sp,12
80003490:	00008067          	ret

80003494 <ioe_read>:
80003494:	00251513          	slli	a0,a0,0x2
80003498:	00005797          	auipc	a5,0x5
8000349c:	42c78793          	addi	a5,a5,1068 # 800088c4 <lut>
800034a0:	00a787b3          	add	a5,a5,a0
800034a4:	0007a783          	lw	a5,0(a5)
800034a8:	00058513          	mv	a0,a1
800034ac:	00078067          	jr	a5

800034b0 <ioe_write>:
800034b0:	00251513          	slli	a0,a0,0x2
800034b4:	00005797          	auipc	a5,0x5
800034b8:	41078793          	addi	a5,a5,1040 # 800088c4 <lut>
800034bc:	00a787b3          	add	a5,a5,a0
800034c0:	0007a783          	lw	a5,0(a5)
800034c4:	00058513          	mv	a0,a1
800034c8:	00078067          	jr	a5

800034cc <__am_timer_init>:
800034cc:	a00007b7          	lui	a5,0xa0000
800034d0:	04c7a683          	lw	a3,76(a5) # a000004c <_end+0x1ffeb04c>
800034d4:	0487a603          	lw	a2,72(a5)
800034d8:	04c7a703          	lw	a4,76(a5)
800034dc:	fed71ae3          	bne	a4,a3,800034d0 <__am_timer_init+0x4>
800034e0:	00009797          	auipc	a5,0x9
800034e4:	f8078793          	addi	a5,a5,-128 # 8000c460 <start_time>
800034e8:	00c7a023          	sw	a2,0(a5)
800034ec:	00e7a223          	sw	a4,4(a5)
800034f0:	00008067          	ret

800034f4 <__am_timer_uptime>:
800034f4:	a00007b7          	lui	a5,0xa0000
800034f8:	04c7a683          	lw	a3,76(a5) # a000004c <_end+0x1ffeb04c>
800034fc:	0487a603          	lw	a2,72(a5)
80003500:	04c7a703          	lw	a4,76(a5)
80003504:	fed71ae3          	bne	a4,a3,800034f8 <__am_timer_uptime+0x4>
80003508:	00009697          	auipc	a3,0x9
8000350c:	f5868693          	addi	a3,a3,-168 # 8000c460 <start_time>
80003510:	0006a783          	lw	a5,0(a3)
80003514:	0046a683          	lw	a3,4(a3)
80003518:	40f607b3          	sub	a5,a2,a5
8000351c:	00f63633          	sltu	a2,a2,a5
80003520:	40d70733          	sub	a4,a4,a3
80003524:	40c70733          	sub	a4,a4,a2
80003528:	00f52023          	sw	a5,0(a0)
8000352c:	00e52223          	sw	a4,4(a0)
80003530:	00008067          	ret

80003534 <__am_timer_rtc>:
80003534:	76c00793          	li	a5,1900
80003538:	00052a23          	sw	zero,20(a0)
8000353c:	00052823          	sw	zero,16(a0)
80003540:	00052623          	sw	zero,12(a0)
80003544:	00052423          	sw	zero,8(a0)
80003548:	00052223          	sw	zero,4(a0)
8000354c:	00f52023          	sw	a5,0(a0)
80003550:	00008067          	ret

80003554 <__am_input_keybrd>:
80003554:	a00007b7          	lui	a5,0xa0000
80003558:	0607a783          	lw	a5,96(a5) # a0000060 <_end+0x1ffeb060>
8000355c:	02078263          	beqz	a5,80003580 <__am_input_keybrd+0x2c>
80003560:	ffff86b7          	lui	a3,0xffff8
80003564:	00f7d713          	srli	a4,a5,0xf
80003568:	fff68693          	addi	a3,a3,-1 # ffff7fff <_end+0x7ffe2fff>
8000356c:	00177713          	andi	a4,a4,1
80003570:	00d7f7b3          	and	a5,a5,a3
80003574:	00e50023          	sb	a4,0(a0)
80003578:	00f52223          	sw	a5,4(a0)
8000357c:	00008067          	ret
80003580:	00000713          	li	a4,0
80003584:	00000793          	li	a5,0
80003588:	00e50023          	sb	a4,0(a0)
8000358c:	00f52223          	sw	a5,4(a0)
80003590:	00008067          	ret

80003594 <__am_gpu_init>:
80003594:	a00007b7          	lui	a5,0xa0000
80003598:	1007a783          	lw	a5,256(a5) # a0000100 <_end+0x1ffeb100>
8000359c:	0107d693          	srli	a3,a5,0x10
800035a0:	01079793          	slli	a5,a5,0x10
800035a4:	0107d793          	srli	a5,a5,0x10
800035a8:	02f686b3          	mul	a3,a3,a5
800035ac:	00068e63          	beqz	a3,800035c8 <__am_gpu_init+0x34>
800035b0:	a1000737          	lui	a4,0xa1000
800035b4:	00000793          	li	a5,0
800035b8:	00f72023          	sw	a5,0(a4) # a1000000 <_end+0x20feb000>
800035bc:	00178793          	addi	a5,a5,1
800035c0:	00470713          	addi	a4,a4,4
800035c4:	fed79ae3          	bne	a5,a3,800035b8 <__am_gpu_init+0x24>
800035c8:	a00007b7          	lui	a5,0xa0000
800035cc:	00100713          	li	a4,1
800035d0:	10e7a223          	sw	a4,260(a5) # a0000104 <_end+0x1ffeb104>
800035d4:	00008067          	ret

800035d8 <__am_gpu_config>:
800035d8:	a00007b7          	lui	a5,0xa0000
800035dc:	1007a783          	lw	a5,256(a5) # a0000100 <_end+0x1ffeb100>
800035e0:	00100613          	li	a2,1
800035e4:	00c51023          	sh	a2,0(a0)
800035e8:	0107d693          	srli	a3,a5,0x10
800035ec:	01079793          	slli	a5,a5,0x10
800035f0:	0107d793          	srli	a5,a5,0x10
800035f4:	02f68733          	mul	a4,a3,a5
800035f8:	00f52423          	sw	a5,8(a0)
800035fc:	00d52223          	sw	a3,4(a0)
80003600:	00271793          	slli	a5,a4,0x2
80003604:	00f52623          	sw	a5,12(a0)
80003608:	00008067          	ret

8000360c <__am_gpu_fbdraw>:
8000360c:	01052603          	lw	a2,16(a0)
80003610:	00852683          	lw	a3,8(a0)
80003614:	a00007b7          	lui	a5,0xa0000
80003618:	fe010113          	addi	sp,sp,-32
8000361c:	1007a783          	lw	a5,256(a5) # a0000100 <_end+0x1ffeb100>
80003620:	00912c23          	sw	s1,24(sp)
80003624:	00812e23          	sw	s0,28(sp)
80003628:	00a12a23          	sw	a0,20(sp)
8000362c:	00c12223          	sw	a2,4(sp)
80003630:	00d12423          	sw	a3,8(sp)
80003634:	00052483          	lw	s1,0(a0)
80003638:	00452703          	lw	a4,4(a0)
8000363c:	00c52583          	lw	a1,12(a0)
80003640:	0ac05863          	blez	a2,800036f0 <__am_gpu_fbdraw+0xe4>
80003644:	0107d413          	srli	s0,a5,0x10
80003648:	01079793          	slli	a5,a5,0x10
8000364c:	0107d793          	srli	a5,a5,0x10
80003650:	0af77063          	bgeu	a4,a5,800036f0 <__am_gpu_fbdraw+0xe4>
80003654:	02e40633          	mul	a2,s0,a4
80003658:	40e787b3          	sub	a5,a5,a4
8000365c:	00f12823          	sw	a5,16(sp)
80003660:	00812783          	lw	a5,8(sp)
80003664:	40b406b3          	sub	a3,s0,a1
80003668:	00269693          	slli	a3,a3,0x2
8000366c:	00d12623          	sw	a3,12(sp)
80003670:	00000393          	li	t2,0
80003674:	00000293          	li	t0,0
80003678:	40940333          	sub	t1,s0,s1
8000367c:	00960633          	add	a2,a2,s1
80003680:	00261613          	slli	a2,a2,0x2
80003684:	a1000537          	lui	a0,0xa1000
80003688:	40f60633          	sub	a2,a2,a5
8000368c:	04b05263          	blez	a1,800036d0 <__am_gpu_fbdraw+0xc4>
80003690:	0484f063          	bgeu	s1,s0,800036d0 <__am_gpu_fbdraw+0xc4>
80003694:	00812703          	lw	a4,8(sp)
80003698:	00239793          	slli	a5,t2,0x2
8000369c:	00512023          	sw	t0,0(sp)
800036a0:	00f707b3          	add	a5,a4,a5
800036a4:	00000713          	li	a4,0
800036a8:	00c0006f          	j	800036b4 <__am_gpu_fbdraw+0xa8>
800036ac:	00478793          	addi	a5,a5,4
800036b0:	00670e63          	beq	a4,t1,800036cc <__am_gpu_fbdraw+0xc0>
800036b4:	0007a283          	lw	t0,0(a5)
800036b8:	00c786b3          	add	a3,a5,a2
800036bc:	00d506b3          	add	a3,a0,a3
800036c0:	0056a023          	sw	t0,0(a3)
800036c4:	00170713          	addi	a4,a4,1
800036c8:	fee592e3          	bne	a1,a4,800036ac <__am_gpu_fbdraw+0xa0>
800036cc:	00012283          	lw	t0,0(sp)
800036d0:	00412783          	lw	a5,4(sp)
800036d4:	00128293          	addi	t0,t0,1
800036d8:	00578c63          	beq	a5,t0,800036f0 <__am_gpu_fbdraw+0xe4>
800036dc:	00c12783          	lw	a5,12(sp)
800036e0:	00b383b3          	add	t2,t2,a1
800036e4:	00f60633          	add	a2,a2,a5
800036e8:	01012783          	lw	a5,16(sp)
800036ec:	faf290e3          	bne	t0,a5,8000368c <__am_gpu_fbdraw+0x80>
800036f0:	01412783          	lw	a5,20(sp)
800036f4:	0147c783          	lbu	a5,20(a5)
800036f8:	00078863          	beqz	a5,80003708 <__am_gpu_fbdraw+0xfc>
800036fc:	a00007b7          	lui	a5,0xa0000
80003700:	00100713          	li	a4,1
80003704:	10e7a223          	sw	a4,260(a5) # a0000104 <_end+0x1ffeb104>
80003708:	01c12403          	lw	s0,28(sp)
8000370c:	01812483          	lw	s1,24(sp)
80003710:	02010113          	addi	sp,sp,32
80003714:	00008067          	ret

80003718 <__am_gpu_status>:
80003718:	00100793          	li	a5,1
8000371c:	00f50023          	sb	a5,0(a0) # a1000000 <_end+0x20feb000>
80003720:	00008067          	ret

80003724 <__am_audio_init>:
80003724:	00008067          	ret

80003728 <__am_audio_config>:
80003728:	00050023          	sb	zero,0(a0)
8000372c:	00008067          	ret

80003730 <__am_audio_ctrl>:
80003730:	00008067          	ret

80003734 <__am_audio_status>:
80003734:	00052023          	sw	zero,0(a0)
80003738:	00008067          	ret

8000373c <__am_audio_play>:
8000373c:	00008067          	ret

80003740 <__am_disk_config>:
80003740:	00050023          	sb	zero,0(a0)
80003744:	00008067          	ret

80003748 <__am_disk_status>:
80003748:	00008067          	ret

8000374c <__am_disk_blkio>:
8000374c:	00008067          	ret

80003750 <int_to_str>:
80003750:	0a054263          	bltz	a0,800037f4 <int_to_str+0xa4>
80003754:	08050463          	beqz	a0,800037dc <int_to_str+0x8c>
80003758:	00000293          	li	t0,0
8000375c:	fe010113          	addi	sp,sp,-32
80003760:	00000713          	li	a4,0
80003764:	00a00693          	li	a3,10
80003768:	02d567b3          	rem	a5,a0,a3
8000376c:	00070313          	mv	t1,a4
80003770:	00170713          	addi	a4,a4,1
80003774:	00e10633          	add	a2,sp,a4
80003778:	02d54533          	div	a0,a0,a3
8000377c:	03078793          	addi	a5,a5,48
80003780:	0ff7f793          	zext.b	a5,a5
80003784:	fef60fa3          	sb	a5,-1(a2)
80003788:	fe0510e3          	bnez	a0,80003768 <int_to_str+0x18>
8000378c:	00070513          	mv	a0,a4
80003790:	00028c63          	beqz	t0,800037a8 <int_to_str+0x58>
80003794:	02070793          	addi	a5,a4,32
80003798:	00278733          	add	a4,a5,sp
8000379c:	02d00793          	li	a5,45
800037a0:	00230513          	addi	a0,t1,2
800037a4:	fef70023          	sb	a5,-32(a4)
800037a8:	00058693          	mv	a3,a1
800037ac:	00a10733          	add	a4,sp,a0
800037b0:	00110613          	addi	a2,sp,1
800037b4:	00c0006f          	j	800037c0 <int_to_str+0x70>
800037b8:	ffe74783          	lbu	a5,-2(a4)
800037bc:	fff70713          	addi	a4,a4,-1
800037c0:	00f68023          	sb	a5,0(a3)
800037c4:	00168693          	addi	a3,a3,1
800037c8:	fee618e3          	bne	a2,a4,800037b8 <int_to_str+0x68>
800037cc:	00a585b3          	add	a1,a1,a0
800037d0:	00058023          	sb	zero,0(a1)
800037d4:	02010113          	addi	sp,sp,32
800037d8:	00008067          	ret
800037dc:	03000793          	li	a5,48
800037e0:	00100513          	li	a0,1
800037e4:	00f58023          	sb	a5,0(a1)
800037e8:	00a585b3          	add	a1,a1,a0
800037ec:	00058023          	sb	zero,0(a1)
800037f0:	00008067          	ret
800037f4:	40a00533          	neg	a0,a0
800037f8:	00100293          	li	t0,1
800037fc:	f61ff06f          	j	8000375c <int_to_str+0xc>

80003800 <vsprintf>:
80003800:	fac10113          	addi	sp,sp,-84
80003804:	04812623          	sw	s0,76(sp)
80003808:	04112823          	sw	ra,80(sp)
8000380c:	04912423          	sw	s1,72(sp)
80003810:	0005c783          	lbu	a5,0(a1)
80003814:	00050713          	mv	a4,a0
80003818:	00050413          	mv	s0,a0
8000381c:	02079063          	bnez	a5,8000383c <vsprintf+0x3c>
80003820:	19c0006f          	j	800039bc <vsprintf+0x1bc>
80003824:	00f40023          	sb	a5,0(s0)
80003828:	00058493          	mv	s1,a1
8000382c:	00140413          	addi	s0,s0,1
80003830:	0014c783          	lbu	a5,1(s1)
80003834:	00148593          	addi	a1,s1,1
80003838:	04078463          	beqz	a5,80003880 <vsprintf+0x80>
8000383c:	02500693          	li	a3,37
80003840:	00158493          	addi	s1,a1,1
80003844:	fed790e3          	bne	a5,a3,80003824 <vsprintf+0x24>
80003848:	0015c683          	lbu	a3,1(a1)
8000384c:	07300513          	li	a0,115
80003850:	0ea68a63          	beq	a3,a0,80003944 <vsprintf+0x144>
80003854:	07800513          	li	a0,120
80003858:	08a68463          	beq	a3,a0,800038e0 <vsprintf+0xe0>
8000385c:	06400513          	li	a0,100
80003860:	02a68e63          	beq	a3,a0,8000389c <vsprintf+0x9c>
80003864:	00f40023          	sb	a5,0(s0)
80003868:	0015c783          	lbu	a5,1(a1)
8000386c:	00240413          	addi	s0,s0,2
80003870:	00148593          	addi	a1,s1,1
80003874:	fef40fa3          	sb	a5,-1(s0)
80003878:	0014c783          	lbu	a5,1(s1)
8000387c:	fc0790e3          	bnez	a5,8000383c <vsprintf+0x3c>
80003880:	00040023          	sb	zero,0(s0)
80003884:	05012083          	lw	ra,80(sp)
80003888:	40e40533          	sub	a0,s0,a4
8000388c:	04c12403          	lw	s0,76(sp)
80003890:	04812483          	lw	s1,72(sp)
80003894:	05410113          	addi	sp,sp,84
80003898:	00008067          	ret
8000389c:	00062503          	lw	a0,0(a2)
800038a0:	02810593          	addi	a1,sp,40
800038a4:	00460613          	addi	a2,a2,4
800038a8:	00e12223          	sw	a4,4(sp)
800038ac:	00c12023          	sw	a2,0(sp)
800038b0:	ea1ff0ef          	jal	ra,80003750 <int_to_str>
800038b4:	02814783          	lbu	a5,40(sp)
800038b8:	00012603          	lw	a2,0(sp)
800038bc:	00412703          	lw	a4,4(sp)
800038c0:	f60788e3          	beqz	a5,80003830 <vsprintf+0x30>
800038c4:	02810693          	addi	a3,sp,40
800038c8:	00168693          	addi	a3,a3,1
800038cc:	00f40023          	sb	a5,0(s0)
800038d0:	0006c783          	lbu	a5,0(a3)
800038d4:	00140413          	addi	s0,s0,1
800038d8:	fe0798e3          	bnez	a5,800038c8 <vsprintf+0xc8>
800038dc:	f55ff06f          	j	80003830 <vsprintf+0x30>
800038e0:	00062583          	lw	a1,0(a2)
800038e4:	00460613          	addi	a2,a2,4
800038e8:	08058463          	beqz	a1,80003970 <vsprintf+0x170>
800038ec:	00000313          	li	t1,0
800038f0:	00900293          	li	t0,9
800038f4:	00130513          	addi	a0,t1,1
800038f8:	02810793          	addi	a5,sp,40
800038fc:	00f5f313          	andi	t1,a1,15
80003900:	00a787b3          	add	a5,a5,a0
80003904:	0045d593          	srli	a1,a1,0x4
80003908:	05730693          	addi	a3,t1,87
8000390c:	0062c463          	blt	t0,t1,80003914 <vsprintf+0x114>
80003910:	03030693          	addi	a3,t1,48
80003914:	fed78fa3          	sb	a3,-1(a5)
80003918:	00050313          	mv	t1,a0
8000391c:	fc059ce3          	bnez	a1,800038f4 <vsprintf+0xf4>
80003920:	00810593          	addi	a1,sp,8
80003924:	02910313          	addi	t1,sp,41
80003928:	00c0006f          	j	80003934 <vsprintf+0x134>
8000392c:	ffe7c683          	lbu	a3,-2(a5)
80003930:	fff78793          	addi	a5,a5,-1
80003934:	00d58023          	sb	a3,0(a1)
80003938:	00158593          	addi	a1,a1,1
8000393c:	fef318e3          	bne	t1,a5,8000392c <vsprintf+0x12c>
80003940:	03c0006f          	j	8000397c <vsprintf+0x17c>
80003944:	00062783          	lw	a5,0(a2)
80003948:	00460613          	addi	a2,a2,4
8000394c:	06078063          	beqz	a5,800039ac <vsprintf+0x1ac>
80003950:	0007c683          	lbu	a3,0(a5)
80003954:	ec068ee3          	beqz	a3,80003830 <vsprintf+0x30>
80003958:	00d40023          	sb	a3,0(s0)
8000395c:	0017c683          	lbu	a3,1(a5)
80003960:	00178793          	addi	a5,a5,1
80003964:	00140413          	addi	s0,s0,1
80003968:	fe0698e3          	bnez	a3,80003958 <vsprintf+0x158>
8000396c:	ec5ff06f          	j	80003830 <vsprintf+0x30>
80003970:	03000793          	li	a5,48
80003974:	00f10423          	sb	a5,8(sp)
80003978:	00100513          	li	a0,1
8000397c:	04050793          	addi	a5,a0,64
80003980:	00810693          	addi	a3,sp,8
80003984:	00d78533          	add	a0,a5,a3
80003988:	fc050023          	sb	zero,-64(a0)
8000398c:	00814783          	lbu	a5,8(sp)
80003990:	ea0780e3          	beqz	a5,80003830 <vsprintf+0x30>
80003994:	00168693          	addi	a3,a3,1
80003998:	00f40023          	sb	a5,0(s0)
8000399c:	0006c783          	lbu	a5,0(a3)
800039a0:	00140413          	addi	s0,s0,1
800039a4:	fe0798e3          	bnez	a5,80003994 <vsprintf+0x194>
800039a8:	e89ff06f          	j	80003830 <vsprintf+0x30>
800039ac:	00005797          	auipc	a5,0x5
800039b0:	ef078793          	addi	a5,a5,-272 # 8000889c <mainargs+0xb8>
800039b4:	02800693          	li	a3,40
800039b8:	fa1ff06f          	j	80003958 <vsprintf+0x158>
800039bc:	00040023          	sb	zero,0(s0)
800039c0:	05012083          	lw	ra,80(sp)
800039c4:	04c12403          	lw	s0,76(sp)
800039c8:	04812483          	lw	s1,72(sp)
800039cc:	00000513          	li	a0,0
800039d0:	05410113          	addi	sp,sp,84
800039d4:	00008067          	ret

800039d8 <printf>:
800039d8:	bdc10113          	addi	sp,sp,-1060
800039dc:	41010313          	addi	t1,sp,1040
800039e0:	40b12823          	sw	a1,1040(sp)
800039e4:	40c12a23          	sw	a2,1044(sp)
800039e8:	00050593          	mv	a1,a0
800039ec:	00030613          	mv	a2,t1
800039f0:	00410513          	addi	a0,sp,4
800039f4:	40812423          	sw	s0,1032(sp)
800039f8:	40112623          	sw	ra,1036(sp)
800039fc:	40912223          	sw	s1,1028(sp)
80003a00:	40d12c23          	sw	a3,1048(sp)
80003a04:	40e12e23          	sw	a4,1052(sp)
80003a08:	42f12023          	sw	a5,1056(sp)
80003a0c:	00612023          	sw	t1,0(sp)
80003a10:	df1ff0ef          	jal	ra,80003800 <vsprintf>
80003a14:	00050413          	mv	s0,a0
80003a18:	00414503          	lbu	a0,4(sp)
80003a1c:	00050c63          	beqz	a0,80003a34 <printf+0x5c>
80003a20:	00510493          	addi	s1,sp,5
80003a24:	00148493          	addi	s1,s1,1
80003a28:	945ff0ef          	jal	ra,8000336c <putch>
80003a2c:	fff4c503          	lbu	a0,-1(s1)
80003a30:	fe051ae3          	bnez	a0,80003a24 <printf+0x4c>
80003a34:	40c12083          	lw	ra,1036(sp)
80003a38:	00040513          	mv	a0,s0
80003a3c:	40812403          	lw	s0,1032(sp)
80003a40:	40412483          	lw	s1,1028(sp)
80003a44:	42410113          	addi	sp,sp,1060
80003a48:	00008067          	ret

80003a4c <rand>:
80003a4c:	00005697          	auipc	a3,0x5
80003a50:	07868693          	addi	a3,a3,120 # 80008ac4 <next>
80003a54:	0006a783          	lw	a5,0(a3)
80003a58:	41c65737          	lui	a4,0x41c65
80003a5c:	e6d70713          	addi	a4,a4,-403 # 41c64e6d <_entry_offset+0x41c64e6d>
80003a60:	02e787b3          	mul	a5,a5,a4
80003a64:	00003737          	lui	a4,0x3
80003a68:	03970713          	addi	a4,a4,57 # 3039 <_entry_offset+0x3039>
80003a6c:	00e787b3          	add	a5,a5,a4
80003a70:	00179513          	slli	a0,a5,0x1
80003a74:	00f6a023          	sw	a5,0(a3)
80003a78:	01155513          	srli	a0,a0,0x11
80003a7c:	00008067          	ret

80003a80 <malloc>:
80003a80:	04050c63          	beqz	a0,80003ad8 <malloc+0x58>
80003a84:	00009697          	auipc	a3,0x9
80003a88:	9e468693          	addi	a3,a3,-1564 # 8000c468 <cur_addr>
80003a8c:	0006a703          	lw	a4,0(a3)
80003a90:	00005617          	auipc	a2,0x5
80003a94:	e2c60613          	addi	a2,a2,-468 # 800088bc <heap>
80003a98:	02070263          	beqz	a4,80003abc <malloc+0x3c>
80003a9c:	00750793          	addi	a5,a0,7
80003aa0:	00462603          	lw	a2,4(a2)
80003aa4:	ff87f793          	andi	a5,a5,-8
80003aa8:	00e787b3          	add	a5,a5,a4
80003aac:	02f66663          	bltu	a2,a5,80003ad8 <malloc+0x58>
80003ab0:	00070513          	mv	a0,a4
80003ab4:	00f6a023          	sw	a5,0(a3)
80003ab8:	00008067          	ret
80003abc:	00062703          	lw	a4,0(a2)
80003ac0:	00750793          	addi	a5,a0,7
80003ac4:	00462603          	lw	a2,4(a2)
80003ac8:	ff87f793          	andi	a5,a5,-8
80003acc:	00e6a023          	sw	a4,0(a3)
80003ad0:	00e787b3          	add	a5,a5,a4
80003ad4:	fcf67ee3          	bgeu	a2,a5,80003ab0 <malloc+0x30>
80003ad8:	00000513          	li	a0,0
80003adc:	00008067          	ret

80003ae0 <free>:
80003ae0:	00008067          	ret

80003ae4 <memset>:
80003ae4:	0ff5f593          	zext.b	a1,a1
80003ae8:	00c50733          	add	a4,a0,a2
80003aec:	00050793          	mv	a5,a0
80003af0:	00060863          	beqz	a2,80003b00 <memset+0x1c>
80003af4:	00178793          	addi	a5,a5,1
80003af8:	feb78fa3          	sb	a1,-1(a5)
80003afc:	fee79ce3          	bne	a5,a4,80003af4 <memset+0x10>
80003b00:	00008067          	ret

80003b04 <memmove>:
80003b04:	02b50663          	beq	a0,a1,80003b30 <memmove+0x2c>
80003b08:	02060463          	beqz	a2,80003b30 <memmove+0x2c>
80003b0c:	fff60713          	addi	a4,a2,-1
80003b10:	02a5e263          	bltu	a1,a0,80003b34 <memmove+0x30>
80003b14:	00c50633          	add	a2,a0,a2
80003b18:	00050793          	mv	a5,a0
80003b1c:	0005c703          	lbu	a4,0(a1)
80003b20:	00178793          	addi	a5,a5,1
80003b24:	00158593          	addi	a1,a1,1
80003b28:	fee78fa3          	sb	a4,-1(a5)
80003b2c:	fec798e3          	bne	a5,a2,80003b1c <memmove+0x18>
80003b30:	00008067          	ret
80003b34:	00c587b3          	add	a5,a1,a2
80003b38:	fcf57ee3          	bgeu	a0,a5,80003b14 <memmove+0x10>
80003b3c:	00e507b3          	add	a5,a0,a4
80003b40:	00e585b3          	add	a1,a1,a4
80003b44:	fff50693          	addi	a3,a0,-1
80003b48:	0005c703          	lbu	a4,0(a1)
80003b4c:	fff78793          	addi	a5,a5,-1
80003b50:	fff58593          	addi	a1,a1,-1
80003b54:	00e780a3          	sb	a4,1(a5)
80003b58:	fef698e3          	bne	a3,a5,80003b48 <memmove+0x44>
80003b5c:	00008067          	ret
