
/root/BUPT_PROJECT/bupt-project/am-kernels/tests/cpu-tests/build/hello-str-riscv32e-nemu.elf:     file format elf32-littleriscv


Disassembly of section .text:

80000000 <_start>:
80000000:	00000413          	li	s0,0
80000004:	00009117          	auipc	sp,0x9
80000008:	ffc10113          	addi	sp,sp,-4 # 80009000 <_end>
8000000c:	0e8000ef          	jal	ra,800000f4 <_trm_init>

80000010 <check>:
80000010:	00050463          	beqz	a0,80000018 <check+0x8>
80000014:	00008067          	ret
80000018:	ff410113          	addi	sp,sp,-12
8000001c:	00100513          	li	a0,1
80000020:	00112423          	sw	ra,8(sp)
80000024:	0c4000ef          	jal	ra,800000e8 <halt>

80000028 <main>:
80000028:	ff410113          	addi	sp,sp,-12
8000002c:	00812223          	sw	s0,4(sp)
80000030:	00000417          	auipc	s0,0x0
80000034:	46c40413          	addi	s0,s0,1132 # 8000049c <buf>
80000038:	00000617          	auipc	a2,0x0
8000003c:	3dc60613          	addi	a2,a2,988 # 80000414 <strcmp+0x44>
80000040:	00000597          	auipc	a1,0x0
80000044:	3e458593          	addi	a1,a1,996 # 80000424 <strcmp+0x54>
80000048:	00040513          	mv	a0,s0
8000004c:	00112423          	sw	ra,8(sp)
80000050:	34c000ef          	jal	ra,8000039c <sprintf>
80000054:	00000597          	auipc	a1,0x0
80000058:	3c058593          	addi	a1,a1,960 # 80000414 <strcmp+0x44>
8000005c:	00040513          	mv	a0,s0
80000060:	370000ef          	jal	ra,800003d0 <strcmp>
80000064:	00153513          	seqz	a0,a0
80000068:	fa9ff0ef          	jal	ra,80000010 <check>
8000006c:	00200713          	li	a4,2
80000070:	00100693          	li	a3,1
80000074:	00100613          	li	a2,1
80000078:	00000597          	auipc	a1,0x0
8000007c:	3b058593          	addi	a1,a1,944 # 80000428 <strcmp+0x58>
80000080:	00040513          	mv	a0,s0
80000084:	318000ef          	jal	ra,8000039c <sprintf>
80000088:	00000597          	auipc	a1,0x0
8000008c:	3b058593          	addi	a1,a1,944 # 80000438 <strcmp+0x68>
80000090:	00040513          	mv	a0,s0
80000094:	33c000ef          	jal	ra,800003d0 <strcmp>
80000098:	00153513          	seqz	a0,a0
8000009c:	f75ff0ef          	jal	ra,80000010 <check>
800000a0:	00c00713          	li	a4,12
800000a4:	00a00693          	li	a3,10
800000a8:	00200613          	li	a2,2
800000ac:	00000597          	auipc	a1,0x0
800000b0:	37c58593          	addi	a1,a1,892 # 80000428 <strcmp+0x58>
800000b4:	00040513          	mv	a0,s0
800000b8:	2e4000ef          	jal	ra,8000039c <sprintf>
800000bc:	00000597          	auipc	a1,0x0
800000c0:	38858593          	addi	a1,a1,904 # 80000444 <strcmp+0x74>
800000c4:	00040513          	mv	a0,s0
800000c8:	308000ef          	jal	ra,800003d0 <strcmp>
800000cc:	00153513          	seqz	a0,a0
800000d0:	f41ff0ef          	jal	ra,80000010 <check>
800000d4:	00812083          	lw	ra,8(sp)
800000d8:	00412403          	lw	s0,4(sp)
800000dc:	00000513          	li	a0,0
800000e0:	00c10113          	addi	sp,sp,12
800000e4:	00008067          	ret

800000e8 <halt>:
800000e8:	00050513          	mv	a0,a0
800000ec:	00100073          	ebreak
800000f0:	0000006f          	j	800000f0 <halt+0x8>

800000f4 <_trm_init>:
800000f4:	ff410113          	addi	sp,sp,-12
800000f8:	00000517          	auipc	a0,0x0
800000fc:	35c50513          	addi	a0,a0,860 # 80000454 <mainargs>
80000100:	00112423          	sw	ra,8(sp)
80000104:	f25ff0ef          	jal	ra,80000028 <main>
80000108:	00050513          	mv	a0,a0
8000010c:	00100073          	ebreak
80000110:	0000006f          	j	80000110 <_trm_init+0x1c>

80000114 <int_to_str>:
80000114:	0a054263          	bltz	a0,800001b8 <int_to_str+0xa4>
80000118:	08050463          	beqz	a0,800001a0 <int_to_str+0x8c>
8000011c:	00000293          	li	t0,0
80000120:	fe010113          	addi	sp,sp,-32
80000124:	00000713          	li	a4,0
80000128:	00a00693          	li	a3,10
8000012c:	02d567b3          	rem	a5,a0,a3
80000130:	00070313          	mv	t1,a4
80000134:	00170713          	addi	a4,a4,1
80000138:	00e10633          	add	a2,sp,a4
8000013c:	02d54533          	div	a0,a0,a3
80000140:	03078793          	addi	a5,a5,48
80000144:	0ff7f793          	zext.b	a5,a5
80000148:	fef60fa3          	sb	a5,-1(a2)
8000014c:	fe0510e3          	bnez	a0,8000012c <int_to_str+0x18>
80000150:	00070513          	mv	a0,a4
80000154:	00028c63          	beqz	t0,8000016c <int_to_str+0x58>
80000158:	02070793          	addi	a5,a4,32
8000015c:	00278733          	add	a4,a5,sp
80000160:	02d00793          	li	a5,45
80000164:	00230513          	addi	a0,t1,2
80000168:	fef70023          	sb	a5,-32(a4)
8000016c:	00058693          	mv	a3,a1
80000170:	00a10733          	add	a4,sp,a0
80000174:	00110613          	addi	a2,sp,1
80000178:	00c0006f          	j	80000184 <int_to_str+0x70>
8000017c:	ffe74783          	lbu	a5,-2(a4)
80000180:	fff70713          	addi	a4,a4,-1
80000184:	00f68023          	sb	a5,0(a3)
80000188:	00168693          	addi	a3,a3,1
8000018c:	fee618e3          	bne	a2,a4,8000017c <int_to_str+0x68>
80000190:	00a585b3          	add	a1,a1,a0
80000194:	00058023          	sb	zero,0(a1)
80000198:	02010113          	addi	sp,sp,32
8000019c:	00008067          	ret
800001a0:	03000793          	li	a5,48
800001a4:	00100513          	li	a0,1
800001a8:	00f58023          	sb	a5,0(a1)
800001ac:	00a585b3          	add	a1,a1,a0
800001b0:	00058023          	sb	zero,0(a1)
800001b4:	00008067          	ret
800001b8:	40a00533          	neg	a0,a0
800001bc:	00100293          	li	t0,1
800001c0:	f61ff06f          	j	80000120 <int_to_str+0xc>

800001c4 <vsprintf>:
800001c4:	fac10113          	addi	sp,sp,-84
800001c8:	04812623          	sw	s0,76(sp)
800001cc:	04112823          	sw	ra,80(sp)
800001d0:	04912423          	sw	s1,72(sp)
800001d4:	0005c783          	lbu	a5,0(a1)
800001d8:	00050713          	mv	a4,a0
800001dc:	00050413          	mv	s0,a0
800001e0:	02079063          	bnez	a5,80000200 <vsprintf+0x3c>
800001e4:	19c0006f          	j	80000380 <vsprintf+0x1bc>
800001e8:	00f40023          	sb	a5,0(s0)
800001ec:	00058493          	mv	s1,a1
800001f0:	00140413          	addi	s0,s0,1
800001f4:	0014c783          	lbu	a5,1(s1)
800001f8:	00148593          	addi	a1,s1,1
800001fc:	04078463          	beqz	a5,80000244 <vsprintf+0x80>
80000200:	02500693          	li	a3,37
80000204:	00158493          	addi	s1,a1,1
80000208:	fed790e3          	bne	a5,a3,800001e8 <vsprintf+0x24>
8000020c:	0015c683          	lbu	a3,1(a1)
80000210:	07300513          	li	a0,115
80000214:	0ea68a63          	beq	a3,a0,80000308 <vsprintf+0x144>
80000218:	07800513          	li	a0,120
8000021c:	08a68463          	beq	a3,a0,800002a4 <vsprintf+0xe0>
80000220:	06400513          	li	a0,100
80000224:	02a68e63          	beq	a3,a0,80000260 <vsprintf+0x9c>
80000228:	00f40023          	sb	a5,0(s0)
8000022c:	0015c783          	lbu	a5,1(a1)
80000230:	00240413          	addi	s0,s0,2
80000234:	00148593          	addi	a1,s1,1
80000238:	fef40fa3          	sb	a5,-1(s0)
8000023c:	0014c783          	lbu	a5,1(s1)
80000240:	fc0790e3          	bnez	a5,80000200 <vsprintf+0x3c>
80000244:	00040023          	sb	zero,0(s0)
80000248:	05012083          	lw	ra,80(sp)
8000024c:	40e40533          	sub	a0,s0,a4
80000250:	04c12403          	lw	s0,76(sp)
80000254:	04812483          	lw	s1,72(sp)
80000258:	05410113          	addi	sp,sp,84
8000025c:	00008067          	ret
80000260:	00062503          	lw	a0,0(a2)
80000264:	02810593          	addi	a1,sp,40
80000268:	00460613          	addi	a2,a2,4
8000026c:	00e12223          	sw	a4,4(sp)
80000270:	00c12023          	sw	a2,0(sp)
80000274:	ea1ff0ef          	jal	ra,80000114 <int_to_str>
80000278:	02814783          	lbu	a5,40(sp)
8000027c:	00012603          	lw	a2,0(sp)
80000280:	00412703          	lw	a4,4(sp)
80000284:	f60788e3          	beqz	a5,800001f4 <vsprintf+0x30>
80000288:	02810693          	addi	a3,sp,40
8000028c:	00168693          	addi	a3,a3,1
80000290:	00f40023          	sb	a5,0(s0)
80000294:	0006c783          	lbu	a5,0(a3)
80000298:	00140413          	addi	s0,s0,1
8000029c:	fe0798e3          	bnez	a5,8000028c <vsprintf+0xc8>
800002a0:	f55ff06f          	j	800001f4 <vsprintf+0x30>
800002a4:	00062583          	lw	a1,0(a2)
800002a8:	00460613          	addi	a2,a2,4
800002ac:	08058463          	beqz	a1,80000334 <vsprintf+0x170>
800002b0:	00000313          	li	t1,0
800002b4:	00900293          	li	t0,9
800002b8:	00130513          	addi	a0,t1,1
800002bc:	02810793          	addi	a5,sp,40
800002c0:	00f5f313          	andi	t1,a1,15
800002c4:	00a787b3          	add	a5,a5,a0
800002c8:	0045d593          	srli	a1,a1,0x4
800002cc:	05730693          	addi	a3,t1,87
800002d0:	0062c463          	blt	t0,t1,800002d8 <vsprintf+0x114>
800002d4:	03030693          	addi	a3,t1,48
800002d8:	fed78fa3          	sb	a3,-1(a5)
800002dc:	00050313          	mv	t1,a0
800002e0:	fc059ce3          	bnez	a1,800002b8 <vsprintf+0xf4>
800002e4:	00810593          	addi	a1,sp,8
800002e8:	02910313          	addi	t1,sp,41
800002ec:	00c0006f          	j	800002f8 <vsprintf+0x134>
800002f0:	ffe7c683          	lbu	a3,-2(a5)
800002f4:	fff78793          	addi	a5,a5,-1
800002f8:	00d58023          	sb	a3,0(a1)
800002fc:	00158593          	addi	a1,a1,1
80000300:	fef318e3          	bne	t1,a5,800002f0 <vsprintf+0x12c>
80000304:	03c0006f          	j	80000340 <vsprintf+0x17c>
80000308:	00062783          	lw	a5,0(a2)
8000030c:	00460613          	addi	a2,a2,4
80000310:	06078063          	beqz	a5,80000370 <vsprintf+0x1ac>
80000314:	0007c683          	lbu	a3,0(a5)
80000318:	ec068ee3          	beqz	a3,800001f4 <vsprintf+0x30>
8000031c:	00d40023          	sb	a3,0(s0)
80000320:	0017c683          	lbu	a3,1(a5)
80000324:	00178793          	addi	a5,a5,1
80000328:	00140413          	addi	s0,s0,1
8000032c:	fe0698e3          	bnez	a3,8000031c <vsprintf+0x158>
80000330:	ec5ff06f          	j	800001f4 <vsprintf+0x30>
80000334:	03000793          	li	a5,48
80000338:	00f10423          	sb	a5,8(sp)
8000033c:	00100513          	li	a0,1
80000340:	04050793          	addi	a5,a0,64
80000344:	00810693          	addi	a3,sp,8
80000348:	00d78533          	add	a0,a5,a3
8000034c:	fc050023          	sb	zero,-64(a0)
80000350:	00814783          	lbu	a5,8(sp)
80000354:	ea0780e3          	beqz	a5,800001f4 <vsprintf+0x30>
80000358:	00168693          	addi	a3,a3,1
8000035c:	00f40023          	sb	a5,0(s0)
80000360:	0006c783          	lbu	a5,0(a3)
80000364:	00140413          	addi	s0,s0,1
80000368:	fe0798e3          	bnez	a5,80000358 <vsprintf+0x194>
8000036c:	e89ff06f          	j	800001f4 <vsprintf+0x30>
80000370:	00000797          	auipc	a5,0x0
80000374:	12478793          	addi	a5,a5,292 # 80000494 <mainargs+0x40>
80000378:	02800693          	li	a3,40
8000037c:	fa1ff06f          	j	8000031c <vsprintf+0x158>
80000380:	00040023          	sb	zero,0(s0)
80000384:	05012083          	lw	ra,80(sp)
80000388:	04c12403          	lw	s0,76(sp)
8000038c:	04812483          	lw	s1,72(sp)
80000390:	00000513          	li	a0,0
80000394:	05410113          	addi	sp,sp,84
80000398:	00008067          	ret

8000039c <sprintf>:
8000039c:	fe010113          	addi	sp,sp,-32
800003a0:	01010313          	addi	t1,sp,16
800003a4:	00c12823          	sw	a2,16(sp)
800003a8:	00030613          	mv	a2,t1
800003ac:	00112623          	sw	ra,12(sp)
800003b0:	00d12a23          	sw	a3,20(sp)
800003b4:	00e12c23          	sw	a4,24(sp)
800003b8:	00f12e23          	sw	a5,28(sp)
800003bc:	00612023          	sw	t1,0(sp)
800003c0:	e05ff0ef          	jal	ra,800001c4 <vsprintf>
800003c4:	00c12083          	lw	ra,12(sp)
800003c8:	02010113          	addi	sp,sp,32
800003cc:	00008067          	ret

800003d0 <strcmp>:
800003d0:	00054783          	lbu	a5,0(a0)
800003d4:	00079a63          	bnez	a5,800003e8 <strcmp+0x18>
800003d8:	0340006f          	j	8000040c <strcmp+0x3c>
800003dc:	00054783          	lbu	a5,0(a0)
800003e0:	02078063          	beqz	a5,80000400 <strcmp+0x30>
800003e4:	00068593          	mv	a1,a3
800003e8:	0005c703          	lbu	a4,0(a1)
800003ec:	00150513          	addi	a0,a0,1
800003f0:	00158693          	addi	a3,a1,1
800003f4:	fef704e3          	beq	a4,a5,800003dc <strcmp+0xc>
800003f8:	40e78533          	sub	a0,a5,a4
800003fc:	00008067          	ret
80000400:	0015c703          	lbu	a4,1(a1)
80000404:	40e78533          	sub	a0,a5,a4
80000408:	00008067          	ret
8000040c:	0005c703          	lbu	a4,0(a1)
80000410:	fe9ff06f          	j	800003f8 <strcmp+0x28>
80000414:	6548                	.2byte	0x6548
80000416:	6c6c                	.2byte	0x6c6c
80000418:	6f77206f          	j	8007330e <_end+0x6a30e>
8000041c:	6c72                	.2byte	0x6c72
8000041e:	2164                	.2byte	0x2164
80000420:	000a                	.2byte	0xa
80000422:	0000                	.2byte	0x0
80000424:	7325                	.2byte	0x7325
80000426:	0000                	.2byte	0x0
80000428:	6425                	.2byte	0x6425
8000042a:	2b20                	.2byte	0x2b20
8000042c:	2520                	.2byte	0x2520
8000042e:	2064                	.2byte	0x2064
80000430:	203d                	.2byte	0x203d
80000432:	6425                	.2byte	0x6425
80000434:	000a                	.2byte	0xa
80000436:	0000                	.2byte	0x0
80000438:	2031                	.2byte	0x2031
8000043a:	2031202b          	.4byte	0x2031202b
8000043e:	203d                	.2byte	0x203d
80000440:	0a32                	.2byte	0xa32
80000442:	0000                	.2byte	0x0
80000444:	2032                	.2byte	0x2032
80000446:	3031202b          	.4byte	0x3031202b
8000044a:	3d20                	.2byte	0x3d20
8000044c:	3120                	.2byte	0x3120
8000044e:	0a32                	.2byte	0xa32
80000450:	0000                	.2byte	0x0
	...

80000454 <mainargs>:
80000454:	6854 2065 6e69 6573 7472 612d 6772 7220     The insert-arg r
80000464:	6c75 2065 6e69 4d20 6b61 6665 6c69 2065     ule in Makefile 
80000474:	6977 6c6c 6920 736e 7265 2074 616d 6e69     will insert main
80000484:	7261 7367 6820 7265 2e65 0000 0000 0000     args here.......
80000494:	6e28 6c75 296c                               (null).
