
/root/BUPT_PROJECT/bupt-project/am-kernels/tests/cpu-tests/build/mersenne-riscv32e-nemu.elf:     file format elf32-littleriscv


Disassembly of section .text:

80000000 <_start>:
80000000:	00000413          	li	s0,0
80000004:	00009117          	auipc	sp,0x9
80000008:	ffc10113          	addi	sp,sp,-4 # 80009000 <_end>
8000000c:	114000ef          	jal	ra,80000120 <_trm_init>

80000010 <check>:
80000010:	00050463          	beqz	a0,80000018 <check+0x8>
80000014:	00008067          	ret
80000018:	ff410113          	addi	sp,sp,-12
8000001c:	00100513          	li	a0,1
80000020:	00112423          	sw	ra,8(sp)
80000024:	0f0000ef          	jal	ra,80000114 <halt>

80000028 <main>:
80000028:	fe810113          	addi	sp,sp,-24
8000002c:	00112a23          	sw	ra,20(sp)
80000030:	00812823          	sw	s0,16(sp)
80000034:	00912623          	sw	s1,12(sp)
80000038:	00b00793          	li	a5,11
8000003c:	3a100693          	li	a3,929
80000040:	00278713          	addi	a4,a5,2
80000044:	0ad78a63          	beq	a5,a3,800000f8 <main+0xd0>
80000048:	02e6e733          	rem	a4,a3,a4
8000004c:	00678793          	addi	a5,a5,6
80000050:	0a070463          	beqz	a4,800000f8 <main+0xd0>
80000054:	02f78733          	mul	a4,a5,a5
80000058:	fee6d4e3          	bge	a3,a4,80000040 <main+0x18>
8000005c:	3a100713          	li	a4,929
80000060:	01600793          	li	a5,22
80000064:	00e12223          	sw	a4,4(sp)
80000068:	00412703          	lw	a4,4(sp)
8000006c:	fff78793          	addi	a5,a5,-1
80000070:	00171713          	slli	a4,a4,0x1
80000074:	00e12223          	sw	a4,4(sp)
80000078:	fe0798e3          	bnez	a5,80000068 <main+0x40>
8000007c:	74300613          	li	a2,1859
80000080:	00000413          	li	s0,0
80000084:	00412483          	lw	s1,4(sp)
80000088:	00c12423          	sw	a2,8(sp)
8000008c:	00100793          	li	a5,1
80000090:	02f795b3          	mulh	a1,a5,a5
80000094:	00040693          	mv	a3,s0
80000098:	00c12023          	sw	a2,0(sp)
8000009c:	02f78533          	mul	a0,a5,a5
800000a0:	464000ef          	jal	ra,80000504 <__moddi3>
800000a4:	00012603          	lw	a2,0(sp)
800000a8:	00050793          	mv	a5,a0
800000ac:	0004d463          	bgez	s1,800000b4 <main+0x8c>
800000b0:	00151793          	slli	a5,a0,0x1
800000b4:	00149493          	slli	s1,s1,0x1
800000b8:	00f65463          	bge	a2,a5,800000c0 <main+0x98>
800000bc:	40c787b3          	sub	a5,a5,a2
800000c0:	fc0498e3          	bnez	s1,80000090 <main+0x68>
800000c4:	74260593          	addi	a1,a2,1858
800000c8:	00c5b633          	sltu	a2,a1,a2
800000cc:	00100713          	li	a4,1
800000d0:	00860433          	add	s0,a2,s0
800000d4:	00058613          	mv	a2,a1
800000d8:	fae796e3          	bne	a5,a4,80000084 <main+0x5c>
800000dc:	00812703          	lw	a4,8(sp)
800000e0:	ffffd7b7          	lui	a5,0xffffd
800000e4:	d3178793          	addi	a5,a5,-719 # ffffcd31 <_end+0x7fff3d31>
800000e8:	00f70533          	add	a0,a4,a5
800000ec:	00153513          	seqz	a0,a0
800000f0:	f21ff0ef          	jal	ra,80000010 <check>
800000f4:	0080006f          	j	800000fc <main+0xd4>
800000f8:	00100493          	li	s1,1
800000fc:	01412083          	lw	ra,20(sp)
80000100:	01012403          	lw	s0,16(sp)
80000104:	00048513          	mv	a0,s1
80000108:	00c12483          	lw	s1,12(sp)
8000010c:	01810113          	addi	sp,sp,24
80000110:	00008067          	ret

80000114 <halt>:
80000114:	00050513          	mv	a0,a0
80000118:	00100073          	ebreak
8000011c:	0000006f          	j	8000011c <halt+0x8>

80000120 <_trm_init>:
80000120:	ff410113          	addi	sp,sp,-12
80000124:	00000517          	auipc	a0,0x0
80000128:	57850513          	addi	a0,a0,1400 # 8000069c <mainargs>
8000012c:	00112423          	sw	ra,8(sp)
80000130:	ef9ff0ef          	jal	ra,80000028 <main>
80000134:	00050513          	mv	a0,a0
80000138:	00100073          	ebreak
8000013c:	0000006f          	j	8000013c <_trm_init+0x1c>

80000140 <__udivmoddi4>:
80000140:	fe010113          	addi	sp,sp,-32
80000144:	00912a23          	sw	s1,20(sp)
80000148:	00112e23          	sw	ra,28(sp)
8000014c:	00812c23          	sw	s0,24(sp)
80000150:	00e12223          	sw	a4,4(sp)
80000154:	00050313          	mv	t1,a0
80000158:	00060493          	mv	s1,a2
8000015c:	02059a63          	bnez	a1,80000190 <__udivmoddi4+0x50>
80000160:	1e069663          	bnez	a3,8000034c <__udivmoddi4+0x20c>
80000164:	00070863          	beqz	a4,80000174 <__udivmoddi4+0x34>
80000168:	02c577b3          	remu	a5,a0,a2
8000016c:	00072223          	sw	zero,4(a4)
80000170:	00f72023          	sw	a5,0(a4)
80000174:	02935533          	divu	a0,t1,s1
80000178:	00000593          	li	a1,0
8000017c:	01c12083          	lw	ra,28(sp)
80000180:	01812403          	lw	s0,24(sp)
80000184:	01412483          	lw	s1,20(sp)
80000188:	02010113          	addi	sp,sp,32
8000018c:	00008067          	ret
80000190:	08061263          	bnez	a2,80000214 <__udivmoddi4+0xd4>
80000194:	24068463          	beqz	a3,800003dc <__udivmoddi4+0x29c>
80000198:	2c050c63          	beqz	a0,80000470 <__udivmoddi4+0x330>
8000019c:	fff68793          	addi	a5,a3,-1
800001a0:	00d7f633          	and	a2,a5,a3
800001a4:	30060063          	beqz	a2,800004a4 <__udivmoddi4+0x364>
800001a8:	00a12623          	sw	a0,12(sp)
800001ac:	00068513          	mv	a0,a3
800001b0:	00b12823          	sw	a1,16(sp)
800001b4:	00b12023          	sw	a1,0(sp)
800001b8:	00d12423          	sw	a3,8(sp)
800001bc:	3d4000ef          	jal	ra,80000590 <__clzsi2>
800001c0:	00012703          	lw	a4,0(sp)
800001c4:	00050413          	mv	s0,a0
800001c8:	00070513          	mv	a0,a4
800001cc:	3c4000ef          	jal	ra,80000590 <__clzsi2>
800001d0:	40a40533          	sub	a0,s0,a0
800001d4:	01e00793          	li	a5,30
800001d8:	00012703          	lw	a4,0(sp)
800001dc:	00812683          	lw	a3,8(sp)
800001e0:	00c12303          	lw	t1,12(sp)
800001e4:	01012583          	lw	a1,16(sp)
800001e8:	1ea7ec63          	bltu	a5,a0,800003e0 <__udivmoddi4+0x2a0>
800001ec:	00150513          	addi	a0,a0,1
800001f0:	02000393          	li	t2,32
800001f4:	40a383b3          	sub	t2,t2,a0
800001f8:	007715b3          	sll	a1,a4,t2
800001fc:	00a35633          	srl	a2,t1,a0
80000200:	00a757b3          	srl	a5,a4,a0
80000204:	007313b3          	sll	t2,t1,t2
80000208:	00c5e733          	or	a4,a1,a2
8000020c:	00000413          	li	s0,0
80000210:	0780006f          	j	80000288 <__udivmoddi4+0x148>
80000214:	16068263          	beqz	a3,80000378 <__udivmoddi4+0x238>
80000218:	00a12423          	sw	a0,8(sp)
8000021c:	00068513          	mv	a0,a3
80000220:	00b12623          	sw	a1,12(sp)
80000224:	00b12023          	sw	a1,0(sp)
80000228:	00d12823          	sw	a3,16(sp)
8000022c:	364000ef          	jal	ra,80000590 <__clzsi2>
80000230:	00012703          	lw	a4,0(sp)
80000234:	00050413          	mv	s0,a0
80000238:	00070513          	mv	a0,a4
8000023c:	354000ef          	jal	ra,80000590 <__clzsi2>
80000240:	40a40533          	sub	a0,s0,a0
80000244:	01f00793          	li	a5,31
80000248:	00812303          	lw	t1,8(sp)
8000024c:	00c12583          	lw	a1,12(sp)
80000250:	18a7e863          	bltu	a5,a0,800003e0 <__udivmoddi4+0x2a0>
80000254:	00150513          	addi	a0,a0,1
80000258:	02000793          	li	a5,32
8000025c:	00012703          	lw	a4,0(sp)
80000260:	01012683          	lw	a3,16(sp)
80000264:	00030393          	mv	t2,t1
80000268:	26f50663          	beq	a0,a5,800004d4 <__udivmoddi4+0x394>
8000026c:	40a78633          	sub	a2,a5,a0
80000270:	00a355b3          	srl	a1,t1,a0
80000274:	00c71333          	sll	t1,a4,a2
80000278:	00a757b3          	srl	a5,a4,a0
8000027c:	00c393b3          	sll	t2,t2,a2
80000280:	00b36733          	or	a4,t1,a1
80000284:	00000413          	li	s0,0
80000288:	00068613          	mv	a2,a3
8000028c:	00012023          	sw	zero,0(sp)
80000290:	00078693          	mv	a3,a5
80000294:	00060793          	mv	a5,a2
80000298:	01f3d593          	srli	a1,t2,0x1f
8000029c:	00171613          	slli	a2,a4,0x1
800002a0:	00b66633          	or	a2,a2,a1
800002a4:	01f75713          	srli	a4,a4,0x1f
800002a8:	00169693          	slli	a3,a3,0x1
800002ac:	00e6e6b3          	or	a3,a3,a4
800002b0:	40c48733          	sub	a4,s1,a2
800002b4:	00e4b333          	sltu	t1,s1,a4
800002b8:	40d785b3          	sub	a1,a5,a3
800002bc:	406585b3          	sub	a1,a1,t1
800002c0:	00173713          	seqz	a4,a4
800002c4:	40e585b3          	sub	a1,a1,a4
800002c8:	41f5d313          	srai	t1,a1,0x1f
800002cc:	00937733          	and	a4,t1,s1
800002d0:	00f37333          	and	t1,t1,a5
800002d4:	406686b3          	sub	a3,a3,t1
800002d8:	00012303          	lw	t1,0(sp)
800002dc:	40e60733          	sub	a4,a2,a4
800002e0:	01f5d593          	srli	a1,a1,0x1f
800002e4:	01f45293          	srli	t0,s0,0x1f
800002e8:	00139393          	slli	t2,t2,0x1
800002ec:	00141413          	slli	s0,s0,0x1
800002f0:	00e63633          	sltu	a2,a2,a4
800002f4:	fff50513          	addi	a0,a0,-1
800002f8:	00b12023          	sw	a1,0(sp)
800002fc:	00646433          	or	s0,s0,t1
80000300:	0053e3b3          	or	t2,t2,t0
80000304:	40c686b3          	sub	a3,a3,a2
80000308:	f80518e3          	bnez	a0,80000298 <__udivmoddi4+0x158>
8000030c:	00068793          	mv	a5,a3
80000310:	00012683          	lw	a3,0(sp)
80000314:	01f45593          	srli	a1,s0,0x1f
80000318:	00141413          	slli	s0,s0,0x1
8000031c:	00d46533          	or	a0,s0,a3
80000320:	00412683          	lw	a3,4(sp)
80000324:	00139393          	slli	t2,t2,0x1
80000328:	0075e5b3          	or	a1,a1,t2
8000032c:	e40688e3          	beqz	a3,8000017c <__udivmoddi4+0x3c>
80000330:	01c12083          	lw	ra,28(sp)
80000334:	01812403          	lw	s0,24(sp)
80000338:	00e6a023          	sw	a4,0(a3)
8000033c:	00f6a223          	sw	a5,4(a3)
80000340:	01412483          	lw	s1,20(sp)
80000344:	02010113          	addi	sp,sp,32
80000348:	00008067          	ret
8000034c:	00412783          	lw	a5,4(sp)
80000350:	08078c63          	beqz	a5,800003e8 <__udivmoddi4+0x2a8>
80000354:	01c12083          	lw	ra,28(sp)
80000358:	01812403          	lw	s0,24(sp)
8000035c:	00a7a023          	sw	a0,0(a5)
80000360:	0007a223          	sw	zero,4(a5)
80000364:	01412483          	lw	s1,20(sp)
80000368:	00000513          	li	a0,0
8000036c:	00000593          	li	a1,0
80000370:	02010113          	addi	sp,sp,32
80000374:	00008067          	ret
80000378:	fff60793          	addi	a5,a2,-1
8000037c:	00c7f633          	and	a2,a5,a2
80000380:	06061a63          	bnez	a2,800003f4 <__udivmoddi4+0x2b4>
80000384:	00412703          	lw	a4,4(sp)
80000388:	00070863          	beqz	a4,80000398 <__udivmoddi4+0x258>
8000038c:	00a7f7b3          	and	a5,a5,a0
80000390:	00f72023          	sw	a5,0(a4)
80000394:	00072223          	sw	zero,4(a4)
80000398:	00100793          	li	a5,1
8000039c:	00030513          	mv	a0,t1
800003a0:	dcf48ee3          	beq	s1,a5,8000017c <__udivmoddi4+0x3c>
800003a4:	00048513          	mv	a0,s1
800003a8:	00b12223          	sw	a1,4(sp)
800003ac:	00612023          	sw	t1,0(sp)
800003b0:	278000ef          	jal	ra,80000628 <__ctzsi2>
800003b4:	00412583          	lw	a1,4(sp)
800003b8:	00012303          	lw	t1,0(sp)
800003bc:	02000713          	li	a4,32
800003c0:	40a70733          	sub	a4,a4,a0
800003c4:	00050793          	mv	a5,a0
800003c8:	00e59733          	sll	a4,a1,a4
800003cc:	00a35333          	srl	t1,t1,a0
800003d0:	00676533          	or	a0,a4,t1
800003d4:	00f5d5b3          	srl	a1,a1,a5
800003d8:	da5ff06f          	j	8000017c <__udivmoddi4+0x3c>
800003dc:	00100073          	ebreak
800003e0:	00412783          	lw	a5,4(sp)
800003e4:	0a079663          	bnez	a5,80000490 <__udivmoddi4+0x350>
800003e8:	00000513          	li	a0,0
800003ec:	00000593          	li	a1,0
800003f0:	d8dff06f          	j	8000017c <__udivmoddi4+0x3c>
800003f4:	00a12623          	sw	a0,12(sp)
800003f8:	00048513          	mv	a0,s1
800003fc:	00068413          	mv	s0,a3
80000400:	00d12823          	sw	a3,16(sp)
80000404:	00b12023          	sw	a1,0(sp)
80000408:	188000ef          	jal	ra,80000590 <__clzsi2>
8000040c:	00012703          	lw	a4,0(sp)
80000410:	00050613          	mv	a2,a0
80000414:	00c12023          	sw	a2,0(sp)
80000418:	00070513          	mv	a0,a4
8000041c:	00e12423          	sw	a4,8(sp)
80000420:	170000ef          	jal	ra,80000590 <__clzsi2>
80000424:	00012603          	lw	a2,0(sp)
80000428:	00c12303          	lw	t1,12(sp)
8000042c:	02000593          	li	a1,32
80000430:	40a60633          	sub	a2,a2,a0
80000434:	02160513          	addi	a0,a2,33
80000438:	00812703          	lw	a4,8(sp)
8000043c:	01012683          	lw	a3,16(sp)
80000440:	00030393          	mv	t2,t1
80000444:	00000793          	li	a5,0
80000448:	e4b500e3          	beq	a0,a1,80000288 <__udivmoddi4+0x148>
8000044c:	01f00313          	li	t1,31
80000450:	08a36863          	bltu	t1,a0,800004e0 <__udivmoddi4+0x3a0>
80000454:	40a585b3          	sub	a1,a1,a0
80000458:	00a3d633          	srl	a2,t2,a0
8000045c:	00b71333          	sll	t1,a4,a1
80000460:	00a757b3          	srl	a5,a4,a0
80000464:	00b393b3          	sll	t2,t2,a1
80000468:	00c36733          	or	a4,t1,a2
8000046c:	e1dff06f          	j	80000288 <__udivmoddi4+0x148>
80000470:	00412703          	lw	a4,4(sp)
80000474:	00070863          	beqz	a4,80000484 <__udivmoddi4+0x344>
80000478:	02d5f7b3          	remu	a5,a1,a3
8000047c:	00072023          	sw	zero,0(a4)
80000480:	00f72223          	sw	a5,4(a4)
80000484:	02d5d533          	divu	a0,a1,a3
80000488:	00000593          	li	a1,0
8000048c:	cf1ff06f          	j	8000017c <__udivmoddi4+0x3c>
80000490:	00b7a223          	sw	a1,4(a5)
80000494:	0067a023          	sw	t1,0(a5)
80000498:	00000513          	li	a0,0
8000049c:	00000593          	li	a1,0
800004a0:	cddff06f          	j	8000017c <__udivmoddi4+0x3c>
800004a4:	00412703          	lw	a4,4(sp)
800004a8:	00070863          	beqz	a4,800004b8 <__udivmoddi4+0x378>
800004ac:	00b7f7b3          	and	a5,a5,a1
800004b0:	00a72023          	sw	a0,0(a4)
800004b4:	00f72223          	sw	a5,4(a4)
800004b8:	00068513          	mv	a0,a3
800004bc:	00b12023          	sw	a1,0(sp)
800004c0:	168000ef          	jal	ra,80000628 <__ctzsi2>
800004c4:	00012583          	lw	a1,0(sp)
800004c8:	00a5d533          	srl	a0,a1,a0
800004cc:	00000593          	li	a1,0
800004d0:	cadff06f          	j	8000017c <__udivmoddi4+0x3c>
800004d4:	00000793          	li	a5,0
800004d8:	00000413          	li	s0,0
800004dc:	dadff06f          	j	80000288 <__udivmoddi4+0x148>
800004e0:	04000593          	li	a1,64
800004e4:	40a585b3          	sub	a1,a1,a0
800004e8:	00160613          	addi	a2,a2,1
800004ec:	00b39433          	sll	s0,t2,a1
800004f0:	00b715b3          	sll	a1,a4,a1
800004f4:	00c3d3b3          	srl	t2,t2,a2
800004f8:	0075e3b3          	or	t2,a1,t2
800004fc:	00c75733          	srl	a4,a4,a2
80000500:	d89ff06f          	j	80000288 <__udivmoddi4+0x148>

80000504 <__moddi3>:
80000504:	fe810113          	addi	sp,sp,-24
80000508:	00812823          	sw	s0,16(sp)
8000050c:	41f6d313          	srai	t1,a3,0x1f
80000510:	41f5d413          	srai	s0,a1,0x1f
80000514:	00854733          	xor	a4,a0,s0
80000518:	006647b3          	xor	a5,a2,t1
8000051c:	00912623          	sw	s1,12(sp)
80000520:	40870533          	sub	a0,a4,s0
80000524:	40678633          	sub	a2,a5,t1
80000528:	0066c6b3          	xor	a3,a3,t1
8000052c:	0085c5b3          	xor	a1,a1,s0
80000530:	00710493          	addi	s1,sp,7
80000534:	ff84f493          	andi	s1,s1,-8
80000538:	00c7b7b3          	sltu	a5,a5,a2
8000053c:	406686b3          	sub	a3,a3,t1
80000540:	408585b3          	sub	a1,a1,s0
80000544:	00a73333          	sltu	t1,a4,a0
80000548:	40f686b3          	sub	a3,a3,a5
8000054c:	00048713          	mv	a4,s1
80000550:	406585b3          	sub	a1,a1,t1
80000554:	00112a23          	sw	ra,20(sp)
80000558:	be9ff0ef          	jal	ra,80000140 <__udivmoddi4>
8000055c:	0004a783          	lw	a5,0(s1)
80000560:	0044a583          	lw	a1,4(s1)
80000564:	01412083          	lw	ra,20(sp)
80000568:	0087c7b3          	xor	a5,a5,s0
8000056c:	0085c5b3          	xor	a1,a1,s0
80000570:	40878533          	sub	a0,a5,s0
80000574:	408585b3          	sub	a1,a1,s0
80000578:	01012403          	lw	s0,16(sp)
8000057c:	00a7b7b3          	sltu	a5,a5,a0
80000580:	00c12483          	lw	s1,12(sp)
80000584:	40f585b3          	sub	a1,a1,a5
80000588:	01810113          	addi	sp,sp,24
8000058c:	00008067          	ret

80000590 <__clzsi2>:
80000590:	ffff0637          	lui	a2,0xffff0
80000594:	00c57633          	and	a2,a0,a2
80000598:	00163613          	seqz	a2,a2
8000059c:	00461613          	slli	a2,a2,0x4
800005a0:	01000793          	li	a5,16
800005a4:	40c787b3          	sub	a5,a5,a2
800005a8:	00010737          	lui	a4,0x10
800005ac:	00f557b3          	srl	a5,a0,a5
800005b0:	f0070713          	addi	a4,a4,-256 # ff00 <_entry_offset+0xff00>
800005b4:	00e7f733          	and	a4,a5,a4
800005b8:	00173713          	seqz	a4,a4
800005bc:	00371713          	slli	a4,a4,0x3
800005c0:	00800693          	li	a3,8
800005c4:	40e686b3          	sub	a3,a3,a4
800005c8:	00d7d7b3          	srl	a5,a5,a3
800005cc:	0f07f593          	andi	a1,a5,240
800005d0:	0015b593          	seqz	a1,a1
800005d4:	00259593          	slli	a1,a1,0x2
800005d8:	00400693          	li	a3,4
800005dc:	40b686b3          	sub	a3,a3,a1
800005e0:	00d7d7b3          	srl	a5,a5,a3
800005e4:	00c7f513          	andi	a0,a5,12
800005e8:	00153513          	seqz	a0,a0
800005ec:	00151513          	slli	a0,a0,0x1
800005f0:	00200313          	li	t1,2
800005f4:	40a306b3          	sub	a3,t1,a0
800005f8:	00d7d7b3          	srl	a5,a5,a3
800005fc:	0017d693          	srli	a3,a5,0x1
80000600:	0016c693          	xori	a3,a3,1
80000604:	00c70733          	add	a4,a4,a2
80000608:	0016f693          	andi	a3,a3,1
8000060c:	00e585b3          	add	a1,a1,a4
80000610:	40f30333          	sub	t1,t1,a5
80000614:	40d006b3          	neg	a3,a3
80000618:	0066f6b3          	and	a3,a3,t1
8000061c:	00b50533          	add	a0,a0,a1
80000620:	00a68533          	add	a0,a3,a0
80000624:	00008067          	ret

80000628 <__ctzsi2>:
80000628:	01051593          	slli	a1,a0,0x10
8000062c:	0105d593          	srli	a1,a1,0x10
80000630:	0015b593          	seqz	a1,a1
80000634:	00459593          	slli	a1,a1,0x4
80000638:	00b557b3          	srl	a5,a0,a1
8000063c:	0ff7f613          	zext.b	a2,a5
80000640:	00163613          	seqz	a2,a2
80000644:	00361613          	slli	a2,a2,0x3
80000648:	00c7d7b3          	srl	a5,a5,a2
8000064c:	00f7f693          	andi	a3,a5,15
80000650:	0016b693          	seqz	a3,a3
80000654:	00269693          	slli	a3,a3,0x2
80000658:	00d7d7b3          	srl	a5,a5,a3
8000065c:	0037f713          	andi	a4,a5,3
80000660:	00173713          	seqz	a4,a4
80000664:	00171713          	slli	a4,a4,0x1
80000668:	00e7d7b3          	srl	a5,a5,a4
8000066c:	0017d513          	srli	a0,a5,0x1
80000670:	00b60633          	add	a2,a2,a1
80000674:	0017f793          	andi	a5,a5,1
80000678:	00157593          	andi	a1,a0,1
8000067c:	00200513          	li	a0,2
80000680:	40b50533          	sub	a0,a0,a1
80000684:	00c686b3          	add	a3,a3,a2
80000688:	fff78793          	addi	a5,a5,-1
8000068c:	00f577b3          	and	a5,a0,a5
80000690:	00d70533          	add	a0,a4,a3
80000694:	00a78533          	add	a0,a5,a0
80000698:	00008067          	ret

8000069c <mainargs>:
8000069c:	20656854 65736e69 612d7472 72206772     The insert-arg r
800006ac:	20656c75 4d206e69 66656b61 20656c69     ule in Makefile 
800006bc:	6c6c6977 736e6920 20747265 6e69616d     will insert main
800006cc:	73677261 72656820 00002e65 00000000     args here.......
