
/root/ysyx-workbench/am-kernels/kernels/typing-game/build/typing-game-riscv32e-nemu.elf:     file format elf32-littleriscv


Disassembly of section .text:

80000000 <_start>:
80000000:	00000413          	li	s0,0
80000004:	00015117          	auipc	sp,0x15
80000008:	ffc10113          	addi	sp,sp,-4 # 80015000 <_end>
8000000c:	09d000ef          	jal	ra,800008a8 <_trm_init>

80000010 <new_char>:
80000010:	ff010113          	addi	sp,sp,-16
80000014:	00002617          	auipc	a2,0x2
80000018:	cb460613          	addi	a2,a2,-844 # 80001cc8 <chars>
8000001c:	00812423          	sw	s0,8(sp)
80000020:	00112623          	sw	ra,12(sp)
80000024:	00912223          	sw	s1,4(sp)
80000028:	00060793          	mv	a5,a2
8000002c:	00000413          	li	s0,0
80000030:	08000693          	li	a3,128
80000034:	00c0006f          	j	80000040 <new_char+0x30>
80000038:	00140413          	addi	s0,s0,1
8000003c:	08d40a63          	beq	s0,a3,800000d0 <new_char+0xc0>
80000040:	0007c703          	lbu	a4,0(a5)
80000044:	01478793          	addi	a5,a5,20
80000048:	fe0718e3          	bnez	a4,80000038 <new_char+0x28>
8000004c:	800004b7          	lui	s1,0x80000
80000050:	3f8010ef          	jal	ra,80001448 <rand>
80000054:	fff4c493          	not	s1,s1
80000058:	009577b3          	and	a5,a0,s1
8000005c:	01a00713          	li	a4,26
80000060:	02e7e7b3          	rem	a5,a5,a4
80000064:	00241713          	slli	a4,s0,0x2
80000068:	00870733          	add	a4,a4,s0
8000006c:	00002617          	auipc	a2,0x2
80000070:	c5c60613          	addi	a2,a2,-932 # 80001cc8 <chars>
80000074:	00271713          	slli	a4,a4,0x2
80000078:	00e60433          	add	s0,a2,a4
8000007c:	0000c717          	auipc	a4,0xc
80000080:	65c72703          	lw	a4,1628(a4) # 8000c6d8 <screen_w>
80000084:	00e12023          	sw	a4,0(sp)
80000088:	04178793          	addi	a5,a5,65
8000008c:	00f40023          	sb	a5,0(s0)
80000090:	3b8010ef          	jal	ra,80001448 <rand>
80000094:	00012703          	lw	a4,0(sp)
80000098:	009577b3          	and	a5,a0,s1
8000009c:	00042423          	sw	zero,8(s0)
800000a0:	ff970713          	addi	a4,a4,-7
800000a4:	02e7e7b3          	rem	a5,a5,a4
800000a8:	0000c497          	auipc	s1,0xc
800000ac:	62c4a483          	lw	s1,1580(s1) # 8000c6d4 <screen_h>
800000b0:	ff148493          	addi	s1,s1,-15
800000b4:	00f42223          	sw	a5,4(s0)
800000b8:	390010ef          	jal	ra,80001448 <rand>
800000bc:	00f57793          	andi	a5,a0,15
800000c0:	02d78793          	addi	a5,a5,45
800000c4:	02f4c4b3          	div	s1,s1,a5
800000c8:	00042823          	sw	zero,16(s0)
800000cc:	00942623          	sw	s1,12(s0)
800000d0:	00c12083          	lw	ra,12(sp)
800000d4:	00812403          	lw	s0,8(sp)
800000d8:	00412483          	lw	s1,4(sp)
800000dc:	01010113          	addi	sp,sp,16
800000e0:	00008067          	ret

800000e4 <game_logic_update>:
800000e4:	00600793          	li	a5,6
800000e8:	02f567b3          	rem	a5,a0,a5
800000ec:	ff410113          	addi	sp,sp,-12
800000f0:	00112423          	sw	ra,8(sp)
800000f4:	00812223          	sw	s0,4(sp)
800000f8:	0a078c63          	beqz	a5,800001b0 <game_logic_update+0xcc>
800000fc:	0000c397          	auipc	t2,0xc
80000100:	5d038393          	addi	t2,t2,1488 # 8000c6cc <miss>
80000104:	0000c617          	auipc	a2,0xc
80000108:	5d062603          	lw	a2,1488(a2) # 8000c6d4 <screen_h>
8000010c:	0003a583          	lw	a1,0(t2)
80000110:	ff060293          	addi	t0,a2,-16
80000114:	00002797          	auipc	a5,0x2
80000118:	bb478793          	addi	a5,a5,-1100 # 80001cc8 <chars>
8000011c:	00002697          	auipc	a3,0x2
80000120:	5ac68693          	addi	a3,a3,1452 # 800026c8 <texture>
80000124:	00000513          	li	a0,0
80000128:	01e00313          	li	t1,30
8000012c:	0180006f          	j	80000144 <game_logic_update+0x60>
80000130:	0087a823          	sw	s0,16(a5)
80000134:	00041463          	bnez	s0,8000013c <game_logic_update+0x58>
80000138:	00078023          	sb	zero,0(a5)
8000013c:	01478793          	addi	a5,a5,20
80000140:	04d78863          	beq	a5,a3,80000190 <game_logic_update+0xac>
80000144:	0007c703          	lbu	a4,0(a5)
80000148:	fe070ae3          	beqz	a4,8000013c <game_logic_update+0x58>
8000014c:	0107a703          	lw	a4,16(a5)
80000150:	fff70413          	addi	s0,a4,-1
80000154:	fce04ee3          	bgtz	a4,80000130 <game_logic_update+0x4c>
80000158:	0087a703          	lw	a4,8(a5)
8000015c:	00c7a403          	lw	s0,12(a5)
80000160:	00870733          	add	a4,a4,s0
80000164:	00e7a423          	sw	a4,8(a5)
80000168:	01070413          	addi	s0,a4,16
8000016c:	02074e63          	bltz	a4,800001a8 <game_logic_update+0xc4>
80000170:	fcc446e3          	blt	s0,a2,8000013c <game_logic_update+0x58>
80000174:	0007a623          	sw	zero,12(a5)
80000178:	0057a423          	sw	t0,8(a5)
8000017c:	0067a823          	sw	t1,16(a5)
80000180:	01478793          	addi	a5,a5,20
80000184:	00158593          	addi	a1,a1,1
80000188:	00100513          	li	a0,1
8000018c:	fad79ce3          	bne	a5,a3,80000144 <game_logic_update+0x60>
80000190:	00050463          	beqz	a0,80000198 <game_logic_update+0xb4>
80000194:	00b3a023          	sw	a1,0(t2)
80000198:	00812083          	lw	ra,8(sp)
8000019c:	00412403          	lw	s0,4(sp)
800001a0:	00c10113          	addi	sp,sp,12
800001a4:	00008067          	ret
800001a8:	00078023          	sb	zero,0(a5)
800001ac:	fc5ff06f          	j	80000170 <game_logic_update+0x8c>
800001b0:	e61ff0ef          	jal	ra,80000010 <new_char>
800001b4:	f49ff06f          	j	800000fc <game_logic_update+0x18>

800001b8 <render>:
800001b8:	0000c397          	auipc	t2,0xc
800001bc:	51838393          	addi	t2,t2,1304 # 8000c6d0 <n.0>
800001c0:	0003a783          	lw	a5,0(t2)
800001c4:	fd410113          	addi	sp,sp,-44
800001c8:	02112423          	sw	ra,40(sp)
800001cc:	02812223          	sw	s0,36(sp)
800001d0:	02912023          	sw	s1,32(sp)
800001d4:	1cf05663          	blez	a5,800003a0 <render+0x1e8>
800001d8:	00810493          	addi	s1,sp,8
800001dc:	0000c697          	auipc	a3,0xc
800001e0:	0ec68693          	addi	a3,a3,236 # 8000c2c8 <x.2>
800001e4:	00048593          	mv	a1,s1
800001e8:	0000c717          	auipc	a4,0xc
800001ec:	2e070713          	addi	a4,a4,736 # 8000c4c8 <y.1>
800001f0:	00000413          	li	s0,0
800001f4:	00068493          	mv	s1,a3
800001f8:	00072783          	lw	a5,0(a4)
800001fc:	0004a683          	lw	a3,0(s1)
80000200:	00b00513          	li	a0,11
80000204:	00f12623          	sw	a5,12(sp)
80000208:	00002797          	auipc	a5,0x2
8000020c:	8c078793          	addi	a5,a5,-1856 # 80001ac8 <blank>
80000210:	00f12823          	sw	a5,16(sp)
80000214:	00800793          	li	a5,8
80000218:	00f12a23          	sw	a5,20(sp)
8000021c:	01000793          	li	a5,16
80000220:	00e12223          	sw	a4,4(sp)
80000224:	00b12023          	sw	a1,0(sp)
80000228:	00f12c23          	sw	a5,24(sp)
8000022c:	00d12423          	sw	a3,8(sp)
80000230:	00010e23          	sb	zero,28(sp)
80000234:	7a0000ef          	jal	ra,800009d4 <ioe_write>
80000238:	0000c397          	auipc	t2,0xc
8000023c:	49838393          	addi	t2,t2,1176 # 8000c6d0 <n.0>
80000240:	00412703          	lw	a4,4(sp)
80000244:	0003a783          	lw	a5,0(t2)
80000248:	00140413          	addi	s0,s0,1
8000024c:	00012583          	lw	a1,0(sp)
80000250:	00448493          	addi	s1,s1,4
80000254:	00470713          	addi	a4,a4,4
80000258:	faf440e3          	blt	s0,a5,800001f8 <render+0x40>
8000025c:	00058493          	mv	s1,a1
80000260:	0000c797          	auipc	a5,0xc
80000264:	4607a823          	sw	zero,1136(a5) # 8000c6d0 <n.0>
80000268:	00002417          	auipc	s0,0x2
8000026c:	a6040413          	addi	s0,s0,-1440 # 80001cc8 <chars>
80000270:	00044703          	lbu	a4,0(s0)
80000274:	00048593          	mv	a1,s1
80000278:	00b00513          	li	a0,11
8000027c:	fbf70793          	addi	a5,a4,-65
80000280:	0a070063          	beqz	a4,80000320 <render+0x168>
80000284:	0003a703          	lw	a4,0(t2)
80000288:	0000c697          	auipc	a3,0xc
8000028c:	04068693          	addi	a3,a3,64 # 8000c2c8 <x.2>
80000290:	0000c097          	auipc	ra,0xc
80000294:	23808093          	addi	ra,ra,568 # 8000c4c8 <y.1>
80000298:	00271713          	slli	a4,a4,0x2
8000029c:	00442303          	lw	t1,4(s0)
800002a0:	00e682b3          	add	t0,a3,a4
800002a4:	00e08733          	add	a4,ra,a4
800002a8:	0003a083          	lw	ra,0(t2)
800002ac:	00842603          	lw	a2,8(s0)
800002b0:	00c42683          	lw	a3,12(s0)
800002b4:	0062a023          	sw	t1,0(t0)
800002b8:	00c42283          	lw	t0,12(s0)
800002bc:	00108093          	addi	ra,ra,1
800002c0:	00d036b3          	snez	a3,a3
800002c4:	00c72023          	sw	a2,0(a4)
800002c8:	0013a023          	sw	ra,0(t2)
800002cc:	40d006b3          	neg	a3,a3
800002d0:	00000713          	li	a4,0
800002d4:	00504663          	bgtz	t0,800002e0 <render+0x128>
800002d8:	01a6f713          	andi	a4,a3,26
800002dc:	01a70713          	addi	a4,a4,26
800002e0:	00e787b3          	add	a5,a5,a4
800002e4:	00979793          	slli	a5,a5,0x9
800002e8:	00002717          	auipc	a4,0x2
800002ec:	3e070713          	addi	a4,a4,992 # 800026c8 <texture>
800002f0:	00e787b3          	add	a5,a5,a4
800002f4:	00f12823          	sw	a5,16(sp)
800002f8:	00800793          	li	a5,8
800002fc:	00f12a23          	sw	a5,20(sp)
80000300:	01000793          	li	a5,16
80000304:	00612423          	sw	t1,8(sp)
80000308:	00c12623          	sw	a2,12(sp)
8000030c:	00f12c23          	sw	a5,24(sp)
80000310:	00010e23          	sb	zero,28(sp)
80000314:	6c0000ef          	jal	ra,800009d4 <ioe_write>
80000318:	0000c397          	auipc	t2,0xc
8000031c:	3b838393          	addi	t2,t2,952 # 8000c6d0 <n.0>
80000320:	01440413          	addi	s0,s0,20
80000324:	00002797          	auipc	a5,0x2
80000328:	3a478793          	addi	a5,a5,932 # 800026c8 <texture>
8000032c:	f4f412e3          	bne	s0,a5,80000270 <render+0xb8>
80000330:	00100793          	li	a5,1
80000334:	00048593          	mv	a1,s1
80000338:	00b00513          	li	a0,11
8000033c:	00012423          	sw	zero,8(sp)
80000340:	00012623          	sw	zero,12(sp)
80000344:	00012823          	sw	zero,16(sp)
80000348:	00012a23          	sw	zero,20(sp)
8000034c:	00012c23          	sw	zero,24(sp)
80000350:	00f10e23          	sb	a5,28(sp)
80000354:	02800413          	li	s0,40
80000358:	67c000ef          	jal	ra,800009d4 <ioe_write>
8000035c:	fff40413          	addi	s0,s0,-1
80000360:	00800513          	li	a0,8
80000364:	52c000ef          	jal	ra,80000890 <putch>
80000368:	fe041ae3          	bnez	s0,8000035c <render+0x1a4>
8000036c:	02412403          	lw	s0,36(sp)
80000370:	02812083          	lw	ra,40(sp)
80000374:	02012483          	lw	s1,32(sp)
80000378:	0000c697          	auipc	a3,0xc
8000037c:	3646a683          	lw	a3,868(a3) # 8000c6dc <wrong>
80000380:	0000c617          	auipc	a2,0xc
80000384:	34c62603          	lw	a2,844(a2) # 8000c6cc <miss>
80000388:	0000c597          	auipc	a1,0xc
8000038c:	3405a583          	lw	a1,832(a1) # 8000c6c8 <hit>
80000390:	00001517          	auipc	a0,0x1
80000394:	0ec50513          	addi	a0,a0,236 # 8000147c <rand+0x34>
80000398:	02c10113          	addi	sp,sp,44
8000039c:	0380106f          	j	800013d4 <printf>
800003a0:	00810493          	addi	s1,sp,8
800003a4:	ebdff06f          	j	80000260 <render+0xa8>

800003a8 <check_hit>:
800003a8:	00002317          	auipc	t1,0x2
800003ac:	92030313          	addi	t1,t1,-1760 # 80001cc8 <chars>
800003b0:	00030793          	mv	a5,t1
800003b4:	00000713          	li	a4,0
800003b8:	fff00593          	li	a1,-1
800003bc:	fff00293          	li	t0,-1
800003c0:	08000613          	li	a2,128
800003c4:	0100006f          	j	800003d4 <check_hit+0x2c>
800003c8:	00170713          	addi	a4,a4,1
800003cc:	01478793          	addi	a5,a5,20
800003d0:	04c70263          	beq	a4,a2,80000414 <check_hit+0x6c>
800003d4:	0007c683          	lbu	a3,0(a5)
800003d8:	fea698e3          	bne	a3,a0,800003c8 <check_hit+0x20>
800003dc:	00c7a683          	lw	a3,12(a5)
800003e0:	fed054e3          	blez	a3,800003c8 <check_hit+0x20>
800003e4:	00259693          	slli	a3,a1,0x2
800003e8:	00b686b3          	add	a3,a3,a1
800003ec:	00269693          	slli	a3,a3,0x2
800003f0:	00d306b3          	add	a3,t1,a3
800003f4:	00558863          	beq	a1,t0,80000404 <check_hit+0x5c>
800003f8:	0087a383          	lw	t2,8(a5)
800003fc:	0086a683          	lw	a3,8(a3)
80000400:	fc76d4e3          	bge	a3,t2,800003c8 <check_hit+0x20>
80000404:	00070593          	mv	a1,a4
80000408:	00170713          	addi	a4,a4,1
8000040c:	01478793          	addi	a5,a5,20
80000410:	fcc712e3          	bne	a4,a2,800003d4 <check_hit+0x2c>
80000414:	fff00793          	li	a5,-1
80000418:	04f58463          	beq	a1,a5,80000460 <check_hit+0xb8>
8000041c:	0000c717          	auipc	a4,0xc
80000420:	2b872703          	lw	a4,696(a4) # 8000c6d4 <screen_h>
80000424:	00f00793          	li	a5,15
80000428:	40e787b3          	sub	a5,a5,a4
8000042c:	01e00713          	li	a4,30
80000430:	02e7c7b3          	div	a5,a5,a4
80000434:	0000c617          	auipc	a2,0xc
80000438:	29460613          	addi	a2,a2,660 # 8000c6c8 <hit>
8000043c:	00062683          	lw	a3,0(a2)
80000440:	00259713          	slli	a4,a1,0x2
80000444:	00b70733          	add	a4,a4,a1
80000448:	00271713          	slli	a4,a4,0x2
8000044c:	00168693          	addi	a3,a3,1
80000450:	00e30333          	add	t1,t1,a4
80000454:	00d62023          	sw	a3,0(a2)
80000458:	00f32623          	sw	a5,12(t1)
8000045c:	00008067          	ret
80000460:	0000c717          	auipc	a4,0xc
80000464:	27c70713          	addi	a4,a4,636 # 8000c6dc <wrong>
80000468:	00072783          	lw	a5,0(a4)
8000046c:	00178793          	addi	a5,a5,1
80000470:	00f72023          	sw	a5,0(a4)
80000474:	00008067          	ret

80000478 <video_init>:
80000478:	fc010113          	addi	sp,sp,-64
8000047c:	02112e23          	sw	ra,60(sp)
80000480:	02812c23          	sw	s0,56(sp)
80000484:	02912a23          	sw	s1,52(sp)
80000488:	04010413          	addi	s0,sp,64
8000048c:	fdc40593          	addi	a1,s0,-36
80000490:	00900513          	li	a0,9
80000494:	524000ef          	jal	ra,800009b8 <ioe_read>
80000498:	fe042783          	lw	a5,-32(s0)
8000049c:	fdc40593          	addi	a1,s0,-36
800004a0:	0000c497          	auipc	s1,0xc
800004a4:	23848493          	addi	s1,s1,568 # 8000c6d8 <screen_w>
800004a8:	00900513          	li	a0,9
800004ac:	00f4a023          	sw	a5,0(s1)
800004b0:	508000ef          	jal	ra,800009b8 <ioe_read>
800004b4:	fe442583          	lw	a1,-28(s0)
800004b8:	0000c617          	auipc	a2,0xc
800004bc:	21c60613          	addi	a2,a2,540 # 8000c6d4 <screen_h>
800004c0:	002a1737          	lui	a4,0x2a1
800004c4:	00b62023          	sw	a1,0(a2)
800004c8:	00001797          	auipc	a5,0x1
800004cc:	60078793          	addi	a5,a5,1536 # 80001ac8 <blank>
800004d0:	00001697          	auipc	a3,0x1
800004d4:	7f868693          	addi	a3,a3,2040 # 80001cc8 <chars>
800004d8:	a2970713          	addi	a4,a4,-1495 # 2a0a29 <_entry_offset+0x2a0a29>
800004dc:	00e7a023          	sw	a4,0(a5)
800004e0:	00478793          	addi	a5,a5,4
800004e4:	fed79ce3          	bne	a5,a3,800004dc <video_init+0x64>
800004e8:	0004a703          	lw	a4,0(s1)
800004ec:	002a1537          	lui	a0,0x2a1
800004f0:	00000693          	li	a3,0
800004f4:	00271793          	slli	a5,a4,0x2
800004f8:	40f10133          	sub	sp,sp,a5
800004fc:	00010313          	mv	t1,sp
80000500:	00030793          	mv	a5,t1
80000504:	a2950513          	addi	a0,a0,-1495 # 2a0a29 <_entry_offset+0x2a0a29>
80000508:	00e05a63          	blez	a4,8000051c <video_init+0xa4>
8000050c:	00a7a023          	sw	a0,0(a5)
80000510:	00168693          	addi	a3,a3,1
80000514:	00478793          	addi	a5,a5,4
80000518:	fed71ae3          	bne	a4,a3,8000050c <video_init+0x94>
8000051c:	00000793          	li	a5,0
80000520:	00b04863          	bgtz	a1,80000530 <video_init+0xb8>
80000524:	0540006f          	j	80000578 <video_init+0x100>
80000528:	0004a703          	lw	a4,0(s1)
8000052c:	fd442303          	lw	t1,-44(s0)
80000530:	fef42023          	sw	a5,-32(s0)
80000534:	fcf42c23          	sw	a5,-40(s0)
80000538:	fdc40593          	addi	a1,s0,-36
8000053c:	00100793          	li	a5,1
80000540:	00b00513          	li	a0,11
80000544:	fee42423          	sw	a4,-24(s0)
80000548:	fef42623          	sw	a5,-20(s0)
8000054c:	fc042e23          	sw	zero,-36(s0)
80000550:	fe642223          	sw	t1,-28(s0)
80000554:	fc642a23          	sw	t1,-44(s0)
80000558:	fe040823          	sb	zero,-16(s0)
8000055c:	478000ef          	jal	ra,800009d4 <ioe_write>
80000560:	fd842783          	lw	a5,-40(s0)
80000564:	0000c617          	auipc	a2,0xc
80000568:	17060613          	addi	a2,a2,368 # 8000c6d4 <screen_h>
8000056c:	00062703          	lw	a4,0(a2)
80000570:	00178793          	addi	a5,a5,1
80000574:	fae7cae3          	blt	a5,a4,80000528 <video_init+0xb0>
80000578:	00001797          	auipc	a5,0x1
8000057c:	3ac78793          	addi	a5,a5,940 # 80001924 <font>
80000580:	fcf42423          	sw	a5,-56(s0)
80000584:	00002797          	auipc	a5,0x2
80000588:	14478793          	addi	a5,a5,324 # 800026c8 <texture>
8000058c:	fcf42223          	sw	a5,-60(s0)
80000590:	002a17b7          	lui	a5,0x2a1
80000594:	a2978493          	addi	s1,a5,-1495 # 2a0a29 <_entry_offset+0x2a0a29>
80000598:	00eef7b7          	lui	a5,0xeef
8000059c:	eee78793          	addi	a5,a5,-274 # eeeeee <_entry_offset+0xeeeeee>
800005a0:	fcf42c23          	sw	a5,-40(s0)
800005a4:	000077b7          	lui	a5,0x7
800005a8:	fc042023          	sw	zero,-64(s0)
800005ac:	80078393          	addi	t2,a5,-2048 # 6800 <_entry_offset+0x6800>
800005b0:	fc442783          	lw	a5,-60(s0)
800005b4:	fc042623          	sw	zero,-52(s0)
800005b8:	fcf42a23          	sw	a5,-44(s0)
800005bc:	fc842783          	lw	a5,-56(s0)
800005c0:	fcf42823          	sw	a5,-48(s0)
800005c4:	fd042783          	lw	a5,-48(s0)
800005c8:	0000d2b7          	lui	t0,0xd
800005cc:	00700713          	li	a4,7
800005d0:	0007c303          	lbu	t1,0(a5)
800005d4:	c3328293          	addi	t0,t0,-973 # cc33 <_entry_offset+0xcc33>
800005d8:	fd442783          	lw	a5,-44(s0)
800005dc:	03c0006f          	j	80000618 <video_init+0x1a0>
800005e0:	fd842683          	lw	a3,-40(s0)
800005e4:	00ff0637          	lui	a2,0xff0
800005e8:	00028513          	mv	a0,t0
800005ec:	03360613          	addi	a2,a2,51 # ff0033 <_entry_offset+0xff0033>
800005f0:	00d7a023          	sw	a3,0(a5)
800005f4:	007785b3          	add	a1,a5,t2
800005f8:	000036b7          	lui	a3,0x3
800005fc:	00d786b3          	add	a3,a5,a3
80000600:	00a5a023          	sw	a0,0(a1)
80000604:	40c6a023          	sw	a2,1024(a3) # 3400 <_entry_offset+0x3400>
80000608:	fff70713          	addi	a4,a4,-1
8000060c:	fff00693          	li	a3,-1
80000610:	00478793          	addi	a5,a5,4
80000614:	02d70063          	beq	a4,a3,80000634 <video_init+0x1bc>
80000618:	40e356b3          	sra	a3,t1,a4
8000061c:	0016f693          	andi	a3,a3,1
80000620:	fc0690e3          	bnez	a3,800005e0 <video_init+0x168>
80000624:	00048693          	mv	a3,s1
80000628:	00048513          	mv	a0,s1
8000062c:	00048613          	mv	a2,s1
80000630:	fc1ff06f          	j	800005f0 <video_init+0x178>
80000634:	fd042683          	lw	a3,-48(s0)
80000638:	fcc42783          	lw	a5,-52(s0)
8000063c:	00168693          	addi	a3,a3,1
80000640:	fcd42823          	sw	a3,-48(s0)
80000644:	fd442683          	lw	a3,-44(s0)
80000648:	00878713          	addi	a4,a5,8
8000064c:	fce42623          	sw	a4,-52(s0)
80000650:	02068693          	addi	a3,a3,32
80000654:	08000793          	li	a5,128
80000658:	fcd42a23          	sw	a3,-44(s0)
8000065c:	f6f714e3          	bne	a4,a5,800005c4 <video_init+0x14c>
80000660:	fc842683          	lw	a3,-56(s0)
80000664:	fc042783          	lw	a5,-64(s0)
80000668:	01068693          	addi	a3,a3,16
8000066c:	fcd42423          	sw	a3,-56(s0)
80000670:	fc442683          	lw	a3,-60(s0)
80000674:	08078713          	addi	a4,a5,128
80000678:	000017b7          	lui	a5,0x1
8000067c:	20068693          	addi	a3,a3,512
80000680:	fce42023          	sw	a4,-64(s0)
80000684:	d0078793          	addi	a5,a5,-768 # d00 <_entry_offset+0xd00>
80000688:	fcd42223          	sw	a3,-60(s0)
8000068c:	f2f712e3          	bne	a4,a5,800005b0 <video_init+0x138>
80000690:	fc040113          	addi	sp,s0,-64
80000694:	03c12083          	lw	ra,60(sp)
80000698:	03812403          	lw	s0,56(sp)
8000069c:	03412483          	lw	s1,52(sp)
800006a0:	04010113          	addi	sp,sp,64
800006a4:	00008067          	ret

800006a8 <main>:
800006a8:	fd010113          	addi	sp,sp,-48
800006ac:	01f10793          	addi	a5,sp,31
800006b0:	ff87f793          	andi	a5,a5,-8
800006b4:	00f12023          	sw	a5,0(sp)
800006b8:	02112623          	sw	ra,44(sp)
800006bc:	02812423          	sw	s0,40(sp)
800006c0:	02912223          	sw	s1,36(sp)
800006c4:	298000ef          	jal	ra,8000095c <ioe_init>
800006c8:	db1ff0ef          	jal	ra,80000478 <video_init>
800006cc:	01010593          	addi	a1,sp,16
800006d0:	00400513          	li	a0,4
800006d4:	2e4000ef          	jal	ra,800009b8 <ioe_read>
800006d8:	01014783          	lbu	a5,16(sp)
800006dc:	06079063          	bnez	a5,8000073c <main+0x94>
800006e0:	00001417          	auipc	s0,0x1
800006e4:	dbc40413          	addi	s0,s0,-580 # 8000149c <rand+0x54>
800006e8:	04100513          	li	a0,65
800006ec:	00140413          	addi	s0,s0,1
800006f0:	1a0000ef          	jal	ra,80000890 <putch>
800006f4:	00044503          	lbu	a0,0(s0)
800006f8:	fe051ae3          	bnez	a0,800006ec <main+0x44>
800006fc:	00001417          	auipc	s0,0x1
80000700:	dac40413          	addi	s0,s0,-596 # 800014a8 <rand+0x60>
80000704:	07200513          	li	a0,114
80000708:	00140413          	addi	s0,s0,1
8000070c:	184000ef          	jal	ra,80000890 <putch>
80000710:	00044503          	lbu	a0,0(s0)
80000714:	fe051ae3          	bnez	a0,80000708 <main+0x60>
80000718:	00001417          	auipc	s0,0x1
8000071c:	da040413          	addi	s0,s0,-608 # 800014b8 <rand+0x70>
80000720:	02000513          	li	a0,32
80000724:	00140413          	addi	s0,s0,1
80000728:	168000ef          	jal	ra,80000890 <putch>
8000072c:	00044503          	lbu	a0,0(s0)
80000730:	fe051ae3          	bnez	a0,80000724 <main+0x7c>
80000734:	00100513          	li	a0,1
80000738:	164000ef          	jal	ra,8000089c <halt>
8000073c:	01010593          	addi	a1,sp,16
80000740:	00700513          	li	a0,7
80000744:	274000ef          	jal	ra,800009b8 <ioe_read>
80000748:	01014783          	lbu	a5,16(sp)
8000074c:	04079e63          	bnez	a5,800007a8 <main+0x100>
80000750:	00001417          	auipc	s0,0x1
80000754:	d4c40413          	addi	s0,s0,-692 # 8000149c <rand+0x54>
80000758:	04100513          	li	a0,65
8000075c:	00140413          	addi	s0,s0,1
80000760:	130000ef          	jal	ra,80000890 <putch>
80000764:	00044503          	lbu	a0,0(s0)
80000768:	fe051ae3          	bnez	a0,8000075c <main+0xb4>
8000076c:	00001417          	auipc	s0,0x1
80000770:	d9440413          	addi	s0,s0,-620 # 80001500 <rand+0xb8>
80000774:	07200513          	li	a0,114
80000778:	00140413          	addi	s0,s0,1
8000077c:	114000ef          	jal	ra,80000890 <putch>
80000780:	00044503          	lbu	a0,0(s0)
80000784:	fe051ae3          	bnez	a0,80000778 <main+0xd0>
80000788:	00001417          	auipc	s0,0x1
8000078c:	d8c40413          	addi	s0,s0,-628 # 80001514 <rand+0xcc>
80000790:	02000513          	li	a0,32
80000794:	00140413          	addi	s0,s0,1
80000798:	0f8000ef          	jal	ra,80000890 <putch>
8000079c:	00044503          	lbu	a0,0(s0)
800007a0:	fe051ae3          	bnez	a0,80000794 <main+0xec>
800007a4:	f91ff06f          	j	80000734 <main+0x8c>
800007a8:	00001517          	auipc	a0,0x1
800007ac:	db450513          	addi	a0,a0,-588 # 8000155c <rand+0x114>
800007b0:	425000ef          	jal	ra,800013d4 <printf>
800007b4:	00012403          	lw	s0,0(sp)
800007b8:	00600513          	li	a0,6
800007bc:	00040593          	mv	a1,s0
800007c0:	1f8000ef          	jal	ra,800009b8 <ioe_read>
800007c4:	00042703          	lw	a4,0(s0)
800007c8:	00442783          	lw	a5,4(s0)
800007cc:	00012623          	sw	zero,12(sp)
800007d0:	00e12223          	sw	a4,4(sp)
800007d4:	00f12423          	sw	a5,8(sp)
800007d8:	00000413          	li	s0,0
800007dc:	00012483          	lw	s1,0(sp)
800007e0:	00600513          	li	a0,6
800007e4:	00048593          	mv	a1,s1
800007e8:	1d0000ef          	jal	ra,800009b8 <ioe_read>
800007ec:	0004a783          	lw	a5,0(s1)
800007f0:	00412703          	lw	a4,4(sp)
800007f4:	0044a583          	lw	a1,4(s1)
800007f8:	00008637          	lui	a2,0x8
800007fc:	40e78533          	sub	a0,a5,a4
80000800:	00812703          	lw	a4,8(sp)
80000804:	00a7b7b3          	sltu	a5,a5,a0
80000808:	23560613          	addi	a2,a2,565 # 8235 <_entry_offset+0x8235>
8000080c:	40e585b3          	sub	a1,a1,a4
80000810:	00000693          	li	a3,0
80000814:	40f585b3          	sub	a1,a1,a5
80000818:	021000ef          	jal	ra,80001038 <__udivdi3>
8000081c:	00050493          	mv	s1,a0
80000820:	00a45a63          	bge	s0,a0,80000834 <main+0x18c>
80000824:	00040513          	mv	a0,s0
80000828:	00140413          	addi	s0,s0,1
8000082c:	8b9ff0ef          	jal	ra,800000e4 <game_logic_update>
80000830:	fe849ae3          	bne	s1,s0,80000824 <main+0x17c>
80000834:	01010593          	addi	a1,sp,16
80000838:	00800513          	li	a0,8
8000083c:	17c000ef          	jal	ra,800009b8 <ioe_read>
80000840:	01412783          	lw	a5,20(sp)
80000844:	01014703          	lbu	a4,16(sp)
80000848:	02078663          	beqz	a5,80000874 <main+0x1cc>
8000084c:	fe0704e3          	beqz	a4,80000834 <main+0x18c>
80000850:	00100713          	li	a4,1
80000854:	02e78a63          	beq	a5,a4,80000888 <main+0x1e0>
80000858:	00001717          	auipc	a4,0x1
8000085c:	dcc70713          	addi	a4,a4,-564 # 80001624 <lut>
80000860:	00f707b3          	add	a5,a4,a5
80000864:	0007c503          	lbu	a0,0(a5)
80000868:	fc0506e3          	beqz	a0,80000834 <main+0x18c>
8000086c:	b3dff0ef          	jal	ra,800003a8 <check_hit>
80000870:	fc5ff06f          	j	80000834 <main+0x18c>
80000874:	00c12783          	lw	a5,12(sp)
80000878:	f687d2e3          	bge	a5,s0,800007dc <main+0x134>
8000087c:	93dff0ef          	jal	ra,800001b8 <render>
80000880:	00812623          	sw	s0,12(sp)
80000884:	f59ff06f          	j	800007dc <main+0x134>
80000888:	00000513          	li	a0,0
8000088c:	010000ef          	jal	ra,8000089c <halt>

80000890 <putch>:
80000890:	a00007b7          	lui	a5,0xa0000
80000894:	3ea78c23          	sb	a0,1016(a5) # a00003f8 <_end+0x1ffeb3f8>
80000898:	00008067          	ret

8000089c <halt>:
8000089c:	00050513          	mv	a0,a0
800008a0:	00100073          	ebreak
800008a4:	0000006f          	j	800008a4 <halt+0x8>

800008a8 <_trm_init>:
800008a8:	ff410113          	addi	sp,sp,-12
800008ac:	00001517          	auipc	a0,0x1
800008b0:	cc450513          	addi	a0,a0,-828 # 80001570 <mainargs>
800008b4:	00112423          	sw	ra,8(sp)
800008b8:	df1ff0ef          	jal	ra,800006a8 <main>
800008bc:	00050513          	mv	a0,a0
800008c0:	00100073          	ebreak
800008c4:	0000006f          	j	800008c4 <_trm_init+0x1c>

800008c8 <__am_timer_config>:
800008c8:	00100793          	li	a5,1
800008cc:	00f50023          	sb	a5,0(a0)
800008d0:	00f500a3          	sb	a5,1(a0)
800008d4:	00008067          	ret

800008d8 <__am_input_config>:
800008d8:	00100793          	li	a5,1
800008dc:	00f50023          	sb	a5,0(a0)
800008e0:	00008067          	ret

800008e4 <__am_uart_config>:
800008e4:	00050023          	sb	zero,0(a0)
800008e8:	00008067          	ret

800008ec <__am_net_config>:
800008ec:	00050023          	sb	zero,0(a0)
800008f0:	00008067          	ret

800008f4 <fail>:
800008f4:	ff410113          	addi	sp,sp,-12
800008f8:	00812223          	sw	s0,4(sp)
800008fc:	00112423          	sw	ra,8(sp)
80000900:	00001417          	auipc	s0,0x1
80000904:	b9c40413          	addi	s0,s0,-1124 # 8000149c <rand+0x54>
80000908:	04100513          	li	a0,65
8000090c:	00140413          	addi	s0,s0,1
80000910:	f81ff0ef          	jal	ra,80000890 <putch>
80000914:	00044503          	lbu	a0,0(s0)
80000918:	fe051ae3          	bnez	a0,8000090c <fail+0x18>
8000091c:	00001417          	auipc	s0,0x1
80000920:	c9440413          	addi	s0,s0,-876 # 800015b0 <mainargs+0x40>
80000924:	06100513          	li	a0,97
80000928:	00140413          	addi	s0,s0,1
8000092c:	f65ff0ef          	jal	ra,80000890 <putch>
80000930:	00044503          	lbu	a0,0(s0)
80000934:	fe051ae3          	bnez	a0,80000928 <fail+0x34>
80000938:	00001417          	auipc	s0,0x1
8000093c:	c9440413          	addi	s0,s0,-876 # 800015cc <mainargs+0x5c>
80000940:	02000513          	li	a0,32
80000944:	00140413          	addi	s0,s0,1
80000948:	f49ff0ef          	jal	ra,80000890 <putch>
8000094c:	00044503          	lbu	a0,0(s0)
80000950:	fe051ae3          	bnez	a0,80000944 <fail+0x50>
80000954:	00100513          	li	a0,1
80000958:	f45ff0ef          	jal	ra,8000089c <halt>

8000095c <ioe_init>:
8000095c:	ff410113          	addi	sp,sp,-12
80000960:	00112423          	sw	ra,8(sp)
80000964:	00001797          	auipc	a5,0x1
80000968:	dc078793          	addi	a5,a5,-576 # 80001724 <lut>
8000096c:	00001697          	auipc	a3,0x1
80000970:	fb868693          	addi	a3,a3,-72 # 80001924 <font>
80000974:	00000617          	auipc	a2,0x0
80000978:	f8060613          	addi	a2,a2,-128 # 800008f4 <fail>
8000097c:	00c0006f          	j	80000988 <ioe_init+0x2c>
80000980:	00478793          	addi	a5,a5,4
80000984:	00d78c63          	beq	a5,a3,8000099c <ioe_init+0x40>
80000988:	0007a703          	lw	a4,0(a5)
8000098c:	fe071ae3          	bnez	a4,80000980 <ioe_init+0x24>
80000990:	00c7a023          	sw	a2,0(a5)
80000994:	00478793          	addi	a5,a5,4
80000998:	fed798e3          	bne	a5,a3,80000988 <ioe_init+0x2c>
8000099c:	11c000ef          	jal	ra,80000ab8 <__am_gpu_init>
800009a0:	050000ef          	jal	ra,800009f0 <__am_timer_init>
800009a4:	2a4000ef          	jal	ra,80000c48 <__am_audio_init>
800009a8:	00812083          	lw	ra,8(sp)
800009ac:	00100513          	li	a0,1
800009b0:	00c10113          	addi	sp,sp,12
800009b4:	00008067          	ret

800009b8 <ioe_read>:
800009b8:	00251513          	slli	a0,a0,0x2
800009bc:	00001797          	auipc	a5,0x1
800009c0:	d6878793          	addi	a5,a5,-664 # 80001724 <lut>
800009c4:	00a787b3          	add	a5,a5,a0
800009c8:	0007a783          	lw	a5,0(a5)
800009cc:	00058513          	mv	a0,a1
800009d0:	00078067          	jr	a5

800009d4 <ioe_write>:
800009d4:	00251513          	slli	a0,a0,0x2
800009d8:	00001797          	auipc	a5,0x1
800009dc:	d4c78793          	addi	a5,a5,-692 # 80001724 <lut>
800009e0:	00a787b3          	add	a5,a5,a0
800009e4:	0007a783          	lw	a5,0(a5)
800009e8:	00058513          	mv	a0,a1
800009ec:	00078067          	jr	a5

800009f0 <__am_timer_init>:
800009f0:	a00007b7          	lui	a5,0xa0000
800009f4:	04c7a683          	lw	a3,76(a5) # a000004c <_end+0x1ffeb04c>
800009f8:	0487a603          	lw	a2,72(a5)
800009fc:	04c7a703          	lw	a4,76(a5)
80000a00:	fed71ae3          	bne	a4,a3,800009f4 <__am_timer_init+0x4>
80000a04:	0000c797          	auipc	a5,0xc
80000a08:	cdc78793          	addi	a5,a5,-804 # 8000c6e0 <start_time>
80000a0c:	00c7a023          	sw	a2,0(a5)
80000a10:	00e7a223          	sw	a4,4(a5)
80000a14:	00008067          	ret

80000a18 <__am_timer_uptime>:
80000a18:	a00007b7          	lui	a5,0xa0000
80000a1c:	04c7a683          	lw	a3,76(a5) # a000004c <_end+0x1ffeb04c>
80000a20:	0487a603          	lw	a2,72(a5)
80000a24:	04c7a703          	lw	a4,76(a5)
80000a28:	fed71ae3          	bne	a4,a3,80000a1c <__am_timer_uptime+0x4>
80000a2c:	0000c697          	auipc	a3,0xc
80000a30:	cb468693          	addi	a3,a3,-844 # 8000c6e0 <start_time>
80000a34:	0006a783          	lw	a5,0(a3)
80000a38:	0046a683          	lw	a3,4(a3)
80000a3c:	40f607b3          	sub	a5,a2,a5
80000a40:	00f63633          	sltu	a2,a2,a5
80000a44:	40d70733          	sub	a4,a4,a3
80000a48:	40c70733          	sub	a4,a4,a2
80000a4c:	00f52023          	sw	a5,0(a0)
80000a50:	00e52223          	sw	a4,4(a0)
80000a54:	00008067          	ret

80000a58 <__am_timer_rtc>:
80000a58:	76c00793          	li	a5,1900
80000a5c:	00052a23          	sw	zero,20(a0)
80000a60:	00052823          	sw	zero,16(a0)
80000a64:	00052623          	sw	zero,12(a0)
80000a68:	00052423          	sw	zero,8(a0)
80000a6c:	00052223          	sw	zero,4(a0)
80000a70:	00f52023          	sw	a5,0(a0)
80000a74:	00008067          	ret

80000a78 <__am_input_keybrd>:
80000a78:	a00007b7          	lui	a5,0xa0000
80000a7c:	0607a783          	lw	a5,96(a5) # a0000060 <_end+0x1ffeb060>
80000a80:	02078263          	beqz	a5,80000aa4 <__am_input_keybrd+0x2c>
80000a84:	ffff86b7          	lui	a3,0xffff8
80000a88:	00f7d713          	srli	a4,a5,0xf
80000a8c:	fff68693          	addi	a3,a3,-1 # ffff7fff <_end+0x7ffe2fff>
80000a90:	00177713          	andi	a4,a4,1
80000a94:	00d7f7b3          	and	a5,a5,a3
80000a98:	00e50023          	sb	a4,0(a0)
80000a9c:	00f52223          	sw	a5,4(a0)
80000aa0:	00008067          	ret
80000aa4:	00000713          	li	a4,0
80000aa8:	00000793          	li	a5,0
80000aac:	00e50023          	sb	a4,0(a0)
80000ab0:	00f52223          	sw	a5,4(a0)
80000ab4:	00008067          	ret

80000ab8 <__am_gpu_init>:
80000ab8:	a00007b7          	lui	a5,0xa0000
80000abc:	1007a783          	lw	a5,256(a5) # a0000100 <_end+0x1ffeb100>
80000ac0:	0107d693          	srli	a3,a5,0x10
80000ac4:	01079793          	slli	a5,a5,0x10
80000ac8:	0107d793          	srli	a5,a5,0x10
80000acc:	02f686b3          	mul	a3,a3,a5
80000ad0:	00068e63          	beqz	a3,80000aec <__am_gpu_init+0x34>
80000ad4:	a1000737          	lui	a4,0xa1000
80000ad8:	00000793          	li	a5,0
80000adc:	00f72023          	sw	a5,0(a4) # a1000000 <_end+0x20feb000>
80000ae0:	00178793          	addi	a5,a5,1
80000ae4:	00470713          	addi	a4,a4,4
80000ae8:	fed79ae3          	bne	a5,a3,80000adc <__am_gpu_init+0x24>
80000aec:	a00007b7          	lui	a5,0xa0000
80000af0:	00100713          	li	a4,1
80000af4:	10e7a223          	sw	a4,260(a5) # a0000104 <_end+0x1ffeb104>
80000af8:	00008067          	ret

80000afc <__am_gpu_config>:
80000afc:	a00007b7          	lui	a5,0xa0000
80000b00:	1007a783          	lw	a5,256(a5) # a0000100 <_end+0x1ffeb100>
80000b04:	00100613          	li	a2,1
80000b08:	00c51023          	sh	a2,0(a0)
80000b0c:	0107d693          	srli	a3,a5,0x10
80000b10:	01079793          	slli	a5,a5,0x10
80000b14:	0107d793          	srli	a5,a5,0x10
80000b18:	02f68733          	mul	a4,a3,a5
80000b1c:	00f52423          	sw	a5,8(a0)
80000b20:	00d52223          	sw	a3,4(a0)
80000b24:	00271793          	slli	a5,a4,0x2
80000b28:	00f52623          	sw	a5,12(a0)
80000b2c:	00008067          	ret

80000b30 <__am_gpu_fbdraw>:
80000b30:	01052603          	lw	a2,16(a0)
80000b34:	00852683          	lw	a3,8(a0)
80000b38:	a00007b7          	lui	a5,0xa0000
80000b3c:	fe010113          	addi	sp,sp,-32
80000b40:	1007a783          	lw	a5,256(a5) # a0000100 <_end+0x1ffeb100>
80000b44:	00912c23          	sw	s1,24(sp)
80000b48:	00812e23          	sw	s0,28(sp)
80000b4c:	00a12a23          	sw	a0,20(sp)
80000b50:	00c12223          	sw	a2,4(sp)
80000b54:	00d12423          	sw	a3,8(sp)
80000b58:	00052483          	lw	s1,0(a0)
80000b5c:	00452703          	lw	a4,4(a0)
80000b60:	00c52583          	lw	a1,12(a0)
80000b64:	0ac05863          	blez	a2,80000c14 <__am_gpu_fbdraw+0xe4>
80000b68:	0107d413          	srli	s0,a5,0x10
80000b6c:	01079793          	slli	a5,a5,0x10
80000b70:	0107d793          	srli	a5,a5,0x10
80000b74:	0af77063          	bgeu	a4,a5,80000c14 <__am_gpu_fbdraw+0xe4>
80000b78:	02e40633          	mul	a2,s0,a4
80000b7c:	40e787b3          	sub	a5,a5,a4
80000b80:	00f12823          	sw	a5,16(sp)
80000b84:	00812783          	lw	a5,8(sp)
80000b88:	40b406b3          	sub	a3,s0,a1
80000b8c:	00269693          	slli	a3,a3,0x2
80000b90:	00d12623          	sw	a3,12(sp)
80000b94:	00000393          	li	t2,0
80000b98:	00000293          	li	t0,0
80000b9c:	40940333          	sub	t1,s0,s1
80000ba0:	00960633          	add	a2,a2,s1
80000ba4:	00261613          	slli	a2,a2,0x2
80000ba8:	a1000537          	lui	a0,0xa1000
80000bac:	40f60633          	sub	a2,a2,a5
80000bb0:	04b05263          	blez	a1,80000bf4 <__am_gpu_fbdraw+0xc4>
80000bb4:	0484f063          	bgeu	s1,s0,80000bf4 <__am_gpu_fbdraw+0xc4>
80000bb8:	00812703          	lw	a4,8(sp)
80000bbc:	00239793          	slli	a5,t2,0x2
80000bc0:	00512023          	sw	t0,0(sp)
80000bc4:	00f707b3          	add	a5,a4,a5
80000bc8:	00000713          	li	a4,0
80000bcc:	00c0006f          	j	80000bd8 <__am_gpu_fbdraw+0xa8>
80000bd0:	00478793          	addi	a5,a5,4
80000bd4:	00670e63          	beq	a4,t1,80000bf0 <__am_gpu_fbdraw+0xc0>
80000bd8:	0007a283          	lw	t0,0(a5)
80000bdc:	00c786b3          	add	a3,a5,a2
80000be0:	00d506b3          	add	a3,a0,a3
80000be4:	0056a023          	sw	t0,0(a3)
80000be8:	00170713          	addi	a4,a4,1
80000bec:	fee592e3          	bne	a1,a4,80000bd0 <__am_gpu_fbdraw+0xa0>
80000bf0:	00012283          	lw	t0,0(sp)
80000bf4:	00412783          	lw	a5,4(sp)
80000bf8:	00128293          	addi	t0,t0,1
80000bfc:	00578c63          	beq	a5,t0,80000c14 <__am_gpu_fbdraw+0xe4>
80000c00:	00c12783          	lw	a5,12(sp)
80000c04:	00b383b3          	add	t2,t2,a1
80000c08:	00f60633          	add	a2,a2,a5
80000c0c:	01012783          	lw	a5,16(sp)
80000c10:	faf290e3          	bne	t0,a5,80000bb0 <__am_gpu_fbdraw+0x80>
80000c14:	01412783          	lw	a5,20(sp)
80000c18:	0147c783          	lbu	a5,20(a5)
80000c1c:	00078863          	beqz	a5,80000c2c <__am_gpu_fbdraw+0xfc>
80000c20:	a00007b7          	lui	a5,0xa0000
80000c24:	00100713          	li	a4,1
80000c28:	10e7a223          	sw	a4,260(a5) # a0000104 <_end+0x1ffeb104>
80000c2c:	01c12403          	lw	s0,28(sp)
80000c30:	01812483          	lw	s1,24(sp)
80000c34:	02010113          	addi	sp,sp,32
80000c38:	00008067          	ret

80000c3c <__am_gpu_status>:
80000c3c:	00100793          	li	a5,1
80000c40:	00f50023          	sb	a5,0(a0) # a1000000 <_end+0x20feb000>
80000c44:	00008067          	ret

80000c48 <__am_audio_init>:
80000c48:	00008067          	ret

80000c4c <__am_audio_config>:
80000c4c:	00050023          	sb	zero,0(a0)
80000c50:	00008067          	ret

80000c54 <__am_audio_ctrl>:
80000c54:	00008067          	ret

80000c58 <__am_audio_status>:
80000c58:	00052023          	sw	zero,0(a0)
80000c5c:	00008067          	ret

80000c60 <__am_audio_play>:
80000c60:	00008067          	ret

80000c64 <__am_disk_config>:
80000c64:	00050023          	sb	zero,0(a0)
80000c68:	00008067          	ret

80000c6c <__am_disk_status>:
80000c6c:	00008067          	ret

80000c70 <__am_disk_blkio>:
80000c70:	00008067          	ret

80000c74 <__udivmoddi4>:
80000c74:	fe010113          	addi	sp,sp,-32
80000c78:	00912a23          	sw	s1,20(sp)
80000c7c:	00112e23          	sw	ra,28(sp)
80000c80:	00812c23          	sw	s0,24(sp)
80000c84:	00e12223          	sw	a4,4(sp)
80000c88:	00050313          	mv	t1,a0
80000c8c:	00060493          	mv	s1,a2
80000c90:	02059a63          	bnez	a1,80000cc4 <__udivmoddi4+0x50>
80000c94:	1e069663          	bnez	a3,80000e80 <__udivmoddi4+0x20c>
80000c98:	00070863          	beqz	a4,80000ca8 <__udivmoddi4+0x34>
80000c9c:	02c577b3          	remu	a5,a0,a2
80000ca0:	00072223          	sw	zero,4(a4)
80000ca4:	00f72023          	sw	a5,0(a4)
80000ca8:	02935533          	divu	a0,t1,s1
80000cac:	00000593          	li	a1,0
80000cb0:	01c12083          	lw	ra,28(sp)
80000cb4:	01812403          	lw	s0,24(sp)
80000cb8:	01412483          	lw	s1,20(sp)
80000cbc:	02010113          	addi	sp,sp,32
80000cc0:	00008067          	ret
80000cc4:	08061263          	bnez	a2,80000d48 <__udivmoddi4+0xd4>
80000cc8:	24068463          	beqz	a3,80000f10 <__udivmoddi4+0x29c>
80000ccc:	2c050c63          	beqz	a0,80000fa4 <__udivmoddi4+0x330>
80000cd0:	fff68793          	addi	a5,a3,-1
80000cd4:	00d7f633          	and	a2,a5,a3
80000cd8:	30060063          	beqz	a2,80000fd8 <__udivmoddi4+0x364>
80000cdc:	00a12623          	sw	a0,12(sp)
80000ce0:	00068513          	mv	a0,a3
80000ce4:	00b12823          	sw	a1,16(sp)
80000ce8:	00b12023          	sw	a1,0(sp)
80000cec:	00d12423          	sw	a3,8(sp)
80000cf0:	350000ef          	jal	ra,80001040 <__clzsi2>
80000cf4:	00012703          	lw	a4,0(sp)
80000cf8:	00050413          	mv	s0,a0
80000cfc:	00070513          	mv	a0,a4
80000d00:	340000ef          	jal	ra,80001040 <__clzsi2>
80000d04:	40a40533          	sub	a0,s0,a0
80000d08:	01e00793          	li	a5,30
80000d0c:	00012703          	lw	a4,0(sp)
80000d10:	00812683          	lw	a3,8(sp)
80000d14:	00c12303          	lw	t1,12(sp)
80000d18:	01012583          	lw	a1,16(sp)
80000d1c:	1ea7ec63          	bltu	a5,a0,80000f14 <__udivmoddi4+0x2a0>
80000d20:	00150513          	addi	a0,a0,1
80000d24:	02000393          	li	t2,32
80000d28:	40a383b3          	sub	t2,t2,a0
80000d2c:	007715b3          	sll	a1,a4,t2
80000d30:	00a35633          	srl	a2,t1,a0
80000d34:	00a757b3          	srl	a5,a4,a0
80000d38:	007313b3          	sll	t2,t1,t2
80000d3c:	00c5e733          	or	a4,a1,a2
80000d40:	00000413          	li	s0,0
80000d44:	0780006f          	j	80000dbc <__udivmoddi4+0x148>
80000d48:	16068263          	beqz	a3,80000eac <__udivmoddi4+0x238>
80000d4c:	00a12423          	sw	a0,8(sp)
80000d50:	00068513          	mv	a0,a3
80000d54:	00b12623          	sw	a1,12(sp)
80000d58:	00b12023          	sw	a1,0(sp)
80000d5c:	00d12823          	sw	a3,16(sp)
80000d60:	2e0000ef          	jal	ra,80001040 <__clzsi2>
80000d64:	00012703          	lw	a4,0(sp)
80000d68:	00050413          	mv	s0,a0
80000d6c:	00070513          	mv	a0,a4
80000d70:	2d0000ef          	jal	ra,80001040 <__clzsi2>
80000d74:	40a40533          	sub	a0,s0,a0
80000d78:	01f00793          	li	a5,31
80000d7c:	00812303          	lw	t1,8(sp)
80000d80:	00c12583          	lw	a1,12(sp)
80000d84:	18a7e863          	bltu	a5,a0,80000f14 <__udivmoddi4+0x2a0>
80000d88:	00150513          	addi	a0,a0,1
80000d8c:	02000793          	li	a5,32
80000d90:	00012703          	lw	a4,0(sp)
80000d94:	01012683          	lw	a3,16(sp)
80000d98:	00030393          	mv	t2,t1
80000d9c:	26f50663          	beq	a0,a5,80001008 <__udivmoddi4+0x394>
80000da0:	40a78633          	sub	a2,a5,a0
80000da4:	00a355b3          	srl	a1,t1,a0
80000da8:	00c71333          	sll	t1,a4,a2
80000dac:	00a757b3          	srl	a5,a4,a0
80000db0:	00c393b3          	sll	t2,t2,a2
80000db4:	00b36733          	or	a4,t1,a1
80000db8:	00000413          	li	s0,0
80000dbc:	00068613          	mv	a2,a3
80000dc0:	00012023          	sw	zero,0(sp)
80000dc4:	00078693          	mv	a3,a5
80000dc8:	00060793          	mv	a5,a2
80000dcc:	01f3d593          	srli	a1,t2,0x1f
80000dd0:	00171613          	slli	a2,a4,0x1
80000dd4:	00b66633          	or	a2,a2,a1
80000dd8:	01f75713          	srli	a4,a4,0x1f
80000ddc:	00169693          	slli	a3,a3,0x1
80000de0:	00e6e6b3          	or	a3,a3,a4
80000de4:	40c48733          	sub	a4,s1,a2
80000de8:	00e4b333          	sltu	t1,s1,a4
80000dec:	40d785b3          	sub	a1,a5,a3
80000df0:	406585b3          	sub	a1,a1,t1
80000df4:	00173713          	seqz	a4,a4
80000df8:	40e585b3          	sub	a1,a1,a4
80000dfc:	41f5d313          	srai	t1,a1,0x1f
80000e00:	00937733          	and	a4,t1,s1
80000e04:	00f37333          	and	t1,t1,a5
80000e08:	406686b3          	sub	a3,a3,t1
80000e0c:	00012303          	lw	t1,0(sp)
80000e10:	40e60733          	sub	a4,a2,a4
80000e14:	01f5d593          	srli	a1,a1,0x1f
80000e18:	01f45293          	srli	t0,s0,0x1f
80000e1c:	00139393          	slli	t2,t2,0x1
80000e20:	00141413          	slli	s0,s0,0x1
80000e24:	00e63633          	sltu	a2,a2,a4
80000e28:	fff50513          	addi	a0,a0,-1
80000e2c:	00b12023          	sw	a1,0(sp)
80000e30:	00646433          	or	s0,s0,t1
80000e34:	0053e3b3          	or	t2,t2,t0
80000e38:	40c686b3          	sub	a3,a3,a2
80000e3c:	f80518e3          	bnez	a0,80000dcc <__udivmoddi4+0x158>
80000e40:	00068793          	mv	a5,a3
80000e44:	00012683          	lw	a3,0(sp)
80000e48:	01f45593          	srli	a1,s0,0x1f
80000e4c:	00141413          	slli	s0,s0,0x1
80000e50:	00d46533          	or	a0,s0,a3
80000e54:	00412683          	lw	a3,4(sp)
80000e58:	00139393          	slli	t2,t2,0x1
80000e5c:	0075e5b3          	or	a1,a1,t2
80000e60:	e40688e3          	beqz	a3,80000cb0 <__udivmoddi4+0x3c>
80000e64:	01c12083          	lw	ra,28(sp)
80000e68:	01812403          	lw	s0,24(sp)
80000e6c:	00e6a023          	sw	a4,0(a3)
80000e70:	00f6a223          	sw	a5,4(a3)
80000e74:	01412483          	lw	s1,20(sp)
80000e78:	02010113          	addi	sp,sp,32
80000e7c:	00008067          	ret
80000e80:	00412783          	lw	a5,4(sp)
80000e84:	08078c63          	beqz	a5,80000f1c <__udivmoddi4+0x2a8>
80000e88:	01c12083          	lw	ra,28(sp)
80000e8c:	01812403          	lw	s0,24(sp)
80000e90:	00a7a023          	sw	a0,0(a5)
80000e94:	0007a223          	sw	zero,4(a5)
80000e98:	01412483          	lw	s1,20(sp)
80000e9c:	00000513          	li	a0,0
80000ea0:	00000593          	li	a1,0
80000ea4:	02010113          	addi	sp,sp,32
80000ea8:	00008067          	ret
80000eac:	fff60793          	addi	a5,a2,-1
80000eb0:	00c7f633          	and	a2,a5,a2
80000eb4:	06061a63          	bnez	a2,80000f28 <__udivmoddi4+0x2b4>
80000eb8:	00412703          	lw	a4,4(sp)
80000ebc:	00070863          	beqz	a4,80000ecc <__udivmoddi4+0x258>
80000ec0:	00a7f7b3          	and	a5,a5,a0
80000ec4:	00f72023          	sw	a5,0(a4)
80000ec8:	00072223          	sw	zero,4(a4)
80000ecc:	00100793          	li	a5,1
80000ed0:	00030513          	mv	a0,t1
80000ed4:	dcf48ee3          	beq	s1,a5,80000cb0 <__udivmoddi4+0x3c>
80000ed8:	00048513          	mv	a0,s1
80000edc:	00b12223          	sw	a1,4(sp)
80000ee0:	00612023          	sw	t1,0(sp)
80000ee4:	1f4000ef          	jal	ra,800010d8 <__ctzsi2>
80000ee8:	00412583          	lw	a1,4(sp)
80000eec:	00012303          	lw	t1,0(sp)
80000ef0:	02000713          	li	a4,32
80000ef4:	40a70733          	sub	a4,a4,a0
80000ef8:	00050793          	mv	a5,a0
80000efc:	00e59733          	sll	a4,a1,a4
80000f00:	00a35333          	srl	t1,t1,a0
80000f04:	00676533          	or	a0,a4,t1
80000f08:	00f5d5b3          	srl	a1,a1,a5
80000f0c:	da5ff06f          	j	80000cb0 <__udivmoddi4+0x3c>
80000f10:	00100073          	ebreak
80000f14:	00412783          	lw	a5,4(sp)
80000f18:	0a079663          	bnez	a5,80000fc4 <__udivmoddi4+0x350>
80000f1c:	00000513          	li	a0,0
80000f20:	00000593          	li	a1,0
80000f24:	d8dff06f          	j	80000cb0 <__udivmoddi4+0x3c>
80000f28:	00a12623          	sw	a0,12(sp)
80000f2c:	00048513          	mv	a0,s1
80000f30:	00068413          	mv	s0,a3
80000f34:	00d12823          	sw	a3,16(sp)
80000f38:	00b12023          	sw	a1,0(sp)
80000f3c:	104000ef          	jal	ra,80001040 <__clzsi2>
80000f40:	00012703          	lw	a4,0(sp)
80000f44:	00050613          	mv	a2,a0
80000f48:	00c12023          	sw	a2,0(sp)
80000f4c:	00070513          	mv	a0,a4
80000f50:	00e12423          	sw	a4,8(sp)
80000f54:	0ec000ef          	jal	ra,80001040 <__clzsi2>
80000f58:	00012603          	lw	a2,0(sp)
80000f5c:	00c12303          	lw	t1,12(sp)
80000f60:	02000593          	li	a1,32
80000f64:	40a60633          	sub	a2,a2,a0
80000f68:	02160513          	addi	a0,a2,33
80000f6c:	00812703          	lw	a4,8(sp)
80000f70:	01012683          	lw	a3,16(sp)
80000f74:	00030393          	mv	t2,t1
80000f78:	00000793          	li	a5,0
80000f7c:	e4b500e3          	beq	a0,a1,80000dbc <__udivmoddi4+0x148>
80000f80:	01f00313          	li	t1,31
80000f84:	08a36863          	bltu	t1,a0,80001014 <__udivmoddi4+0x3a0>
80000f88:	40a585b3          	sub	a1,a1,a0
80000f8c:	00a3d633          	srl	a2,t2,a0
80000f90:	00b71333          	sll	t1,a4,a1
80000f94:	00a757b3          	srl	a5,a4,a0
80000f98:	00b393b3          	sll	t2,t2,a1
80000f9c:	00c36733          	or	a4,t1,a2
80000fa0:	e1dff06f          	j	80000dbc <__udivmoddi4+0x148>
80000fa4:	00412703          	lw	a4,4(sp)
80000fa8:	00070863          	beqz	a4,80000fb8 <__udivmoddi4+0x344>
80000fac:	02d5f7b3          	remu	a5,a1,a3
80000fb0:	00072023          	sw	zero,0(a4)
80000fb4:	00f72223          	sw	a5,4(a4)
80000fb8:	02d5d533          	divu	a0,a1,a3
80000fbc:	00000593          	li	a1,0
80000fc0:	cf1ff06f          	j	80000cb0 <__udivmoddi4+0x3c>
80000fc4:	00b7a223          	sw	a1,4(a5)
80000fc8:	0067a023          	sw	t1,0(a5)
80000fcc:	00000513          	li	a0,0
80000fd0:	00000593          	li	a1,0
80000fd4:	cddff06f          	j	80000cb0 <__udivmoddi4+0x3c>
80000fd8:	00412703          	lw	a4,4(sp)
80000fdc:	00070863          	beqz	a4,80000fec <__udivmoddi4+0x378>
80000fe0:	00b7f7b3          	and	a5,a5,a1
80000fe4:	00a72023          	sw	a0,0(a4)
80000fe8:	00f72223          	sw	a5,4(a4)
80000fec:	00068513          	mv	a0,a3
80000ff0:	00b12023          	sw	a1,0(sp)
80000ff4:	0e4000ef          	jal	ra,800010d8 <__ctzsi2>
80000ff8:	00012583          	lw	a1,0(sp)
80000ffc:	00a5d533          	srl	a0,a1,a0
80001000:	00000593          	li	a1,0
80001004:	cadff06f          	j	80000cb0 <__udivmoddi4+0x3c>
80001008:	00000793          	li	a5,0
8000100c:	00000413          	li	s0,0
80001010:	dadff06f          	j	80000dbc <__udivmoddi4+0x148>
80001014:	04000593          	li	a1,64
80001018:	40a585b3          	sub	a1,a1,a0
8000101c:	00160613          	addi	a2,a2,1
80001020:	00b39433          	sll	s0,t2,a1
80001024:	00b715b3          	sll	a1,a4,a1
80001028:	00c3d3b3          	srl	t2,t2,a2
8000102c:	0075e3b3          	or	t2,a1,t2
80001030:	00c75733          	srl	a4,a4,a2
80001034:	d89ff06f          	j	80000dbc <__udivmoddi4+0x148>

80001038 <__udivdi3>:
80001038:	00000713          	li	a4,0
8000103c:	c39ff06f          	j	80000c74 <__udivmoddi4>

80001040 <__clzsi2>:
80001040:	ffff0637          	lui	a2,0xffff0
80001044:	00c57633          	and	a2,a0,a2
80001048:	00163613          	seqz	a2,a2
8000104c:	00461613          	slli	a2,a2,0x4
80001050:	01000793          	li	a5,16
80001054:	40c787b3          	sub	a5,a5,a2
80001058:	00010737          	lui	a4,0x10
8000105c:	00f557b3          	srl	a5,a0,a5
80001060:	f0070713          	addi	a4,a4,-256 # ff00 <_entry_offset+0xff00>
80001064:	00e7f733          	and	a4,a5,a4
80001068:	00173713          	seqz	a4,a4
8000106c:	00371713          	slli	a4,a4,0x3
80001070:	00800693          	li	a3,8
80001074:	40e686b3          	sub	a3,a3,a4
80001078:	00d7d7b3          	srl	a5,a5,a3
8000107c:	0f07f593          	andi	a1,a5,240
80001080:	0015b593          	seqz	a1,a1
80001084:	00259593          	slli	a1,a1,0x2
80001088:	00400693          	li	a3,4
8000108c:	40b686b3          	sub	a3,a3,a1
80001090:	00d7d7b3          	srl	a5,a5,a3
80001094:	00c7f513          	andi	a0,a5,12
80001098:	00153513          	seqz	a0,a0
8000109c:	00151513          	slli	a0,a0,0x1
800010a0:	00200313          	li	t1,2
800010a4:	40a306b3          	sub	a3,t1,a0
800010a8:	00d7d7b3          	srl	a5,a5,a3
800010ac:	0017d693          	srli	a3,a5,0x1
800010b0:	0016c693          	xori	a3,a3,1
800010b4:	00c70733          	add	a4,a4,a2
800010b8:	0016f693          	andi	a3,a3,1
800010bc:	00e585b3          	add	a1,a1,a4
800010c0:	40f30333          	sub	t1,t1,a5
800010c4:	40d006b3          	neg	a3,a3
800010c8:	0066f6b3          	and	a3,a3,t1
800010cc:	00b50533          	add	a0,a0,a1
800010d0:	00a68533          	add	a0,a3,a0
800010d4:	00008067          	ret

800010d8 <__ctzsi2>:
800010d8:	01051593          	slli	a1,a0,0x10
800010dc:	0105d593          	srli	a1,a1,0x10
800010e0:	0015b593          	seqz	a1,a1
800010e4:	00459593          	slli	a1,a1,0x4
800010e8:	00b557b3          	srl	a5,a0,a1
800010ec:	0ff7f613          	zext.b	a2,a5
800010f0:	00163613          	seqz	a2,a2
800010f4:	00361613          	slli	a2,a2,0x3
800010f8:	00c7d7b3          	srl	a5,a5,a2
800010fc:	00f7f693          	andi	a3,a5,15
80001100:	0016b693          	seqz	a3,a3
80001104:	00269693          	slli	a3,a3,0x2
80001108:	00d7d7b3          	srl	a5,a5,a3
8000110c:	0037f713          	andi	a4,a5,3
80001110:	00173713          	seqz	a4,a4
80001114:	00171713          	slli	a4,a4,0x1
80001118:	00e7d7b3          	srl	a5,a5,a4
8000111c:	0017d513          	srli	a0,a5,0x1
80001120:	00b60633          	add	a2,a2,a1
80001124:	0017f793          	andi	a5,a5,1
80001128:	00157593          	andi	a1,a0,1
8000112c:	00200513          	li	a0,2
80001130:	40b50533          	sub	a0,a0,a1
80001134:	00c686b3          	add	a3,a3,a2
80001138:	fff78793          	addi	a5,a5,-1
8000113c:	00f577b3          	and	a5,a0,a5
80001140:	00d70533          	add	a0,a4,a3
80001144:	00a78533          	add	a0,a5,a0
80001148:	00008067          	ret

8000114c <int_to_str>:
8000114c:	0a054263          	bltz	a0,800011f0 <int_to_str+0xa4>
80001150:	08050463          	beqz	a0,800011d8 <int_to_str+0x8c>
80001154:	00000293          	li	t0,0
80001158:	fe010113          	addi	sp,sp,-32
8000115c:	00000713          	li	a4,0
80001160:	00a00693          	li	a3,10
80001164:	02d567b3          	rem	a5,a0,a3
80001168:	00070313          	mv	t1,a4
8000116c:	00170713          	addi	a4,a4,1
80001170:	00e10633          	add	a2,sp,a4
80001174:	02d54533          	div	a0,a0,a3
80001178:	03078793          	addi	a5,a5,48
8000117c:	0ff7f793          	zext.b	a5,a5
80001180:	fef60fa3          	sb	a5,-1(a2) # fffeffff <_end+0x7ffdafff>
80001184:	fe0510e3          	bnez	a0,80001164 <int_to_str+0x18>
80001188:	00070513          	mv	a0,a4
8000118c:	00028c63          	beqz	t0,800011a4 <int_to_str+0x58>
80001190:	02070793          	addi	a5,a4,32
80001194:	00278733          	add	a4,a5,sp
80001198:	02d00793          	li	a5,45
8000119c:	00230513          	addi	a0,t1,2
800011a0:	fef70023          	sb	a5,-32(a4)
800011a4:	00058693          	mv	a3,a1
800011a8:	00a10733          	add	a4,sp,a0
800011ac:	00110613          	addi	a2,sp,1
800011b0:	00c0006f          	j	800011bc <int_to_str+0x70>
800011b4:	ffe74783          	lbu	a5,-2(a4)
800011b8:	fff70713          	addi	a4,a4,-1
800011bc:	00f68023          	sb	a5,0(a3)
800011c0:	00168693          	addi	a3,a3,1
800011c4:	fee618e3          	bne	a2,a4,800011b4 <int_to_str+0x68>
800011c8:	00a585b3          	add	a1,a1,a0
800011cc:	00058023          	sb	zero,0(a1)
800011d0:	02010113          	addi	sp,sp,32
800011d4:	00008067          	ret
800011d8:	03000793          	li	a5,48
800011dc:	00100513          	li	a0,1
800011e0:	00f58023          	sb	a5,0(a1)
800011e4:	00a585b3          	add	a1,a1,a0
800011e8:	00058023          	sb	zero,0(a1)
800011ec:	00008067          	ret
800011f0:	40a00533          	neg	a0,a0
800011f4:	00100293          	li	t0,1
800011f8:	f61ff06f          	j	80001158 <int_to_str+0xc>

800011fc <vsprintf>:
800011fc:	fac10113          	addi	sp,sp,-84
80001200:	04812623          	sw	s0,76(sp)
80001204:	04112823          	sw	ra,80(sp)
80001208:	04912423          	sw	s1,72(sp)
8000120c:	0005c783          	lbu	a5,0(a1)
80001210:	00050713          	mv	a4,a0
80001214:	00050413          	mv	s0,a0
80001218:	02079063          	bnez	a5,80001238 <vsprintf+0x3c>
8000121c:	19c0006f          	j	800013b8 <vsprintf+0x1bc>
80001220:	00f40023          	sb	a5,0(s0)
80001224:	00058493          	mv	s1,a1
80001228:	00140413          	addi	s0,s0,1
8000122c:	0014c783          	lbu	a5,1(s1)
80001230:	00148593          	addi	a1,s1,1
80001234:	04078463          	beqz	a5,8000127c <vsprintf+0x80>
80001238:	02500693          	li	a3,37
8000123c:	00158493          	addi	s1,a1,1
80001240:	fed790e3          	bne	a5,a3,80001220 <vsprintf+0x24>
80001244:	0015c683          	lbu	a3,1(a1)
80001248:	07300513          	li	a0,115
8000124c:	0ea68a63          	beq	a3,a0,80001340 <vsprintf+0x144>
80001250:	07800513          	li	a0,120
80001254:	08a68463          	beq	a3,a0,800012dc <vsprintf+0xe0>
80001258:	06400513          	li	a0,100
8000125c:	02a68e63          	beq	a3,a0,80001298 <vsprintf+0x9c>
80001260:	00f40023          	sb	a5,0(s0)
80001264:	0015c783          	lbu	a5,1(a1)
80001268:	00240413          	addi	s0,s0,2
8000126c:	00148593          	addi	a1,s1,1
80001270:	fef40fa3          	sb	a5,-1(s0)
80001274:	0014c783          	lbu	a5,1(s1)
80001278:	fc0790e3          	bnez	a5,80001238 <vsprintf+0x3c>
8000127c:	00040023          	sb	zero,0(s0)
80001280:	05012083          	lw	ra,80(sp)
80001284:	40e40533          	sub	a0,s0,a4
80001288:	04c12403          	lw	s0,76(sp)
8000128c:	04812483          	lw	s1,72(sp)
80001290:	05410113          	addi	sp,sp,84
80001294:	00008067          	ret
80001298:	00062503          	lw	a0,0(a2)
8000129c:	02810593          	addi	a1,sp,40
800012a0:	00460613          	addi	a2,a2,4
800012a4:	00e12223          	sw	a4,4(sp)
800012a8:	00c12023          	sw	a2,0(sp)
800012ac:	ea1ff0ef          	jal	ra,8000114c <int_to_str>
800012b0:	02814783          	lbu	a5,40(sp)
800012b4:	00012603          	lw	a2,0(sp)
800012b8:	00412703          	lw	a4,4(sp)
800012bc:	f60788e3          	beqz	a5,8000122c <vsprintf+0x30>
800012c0:	02810693          	addi	a3,sp,40
800012c4:	00168693          	addi	a3,a3,1
800012c8:	00f40023          	sb	a5,0(s0)
800012cc:	0006c783          	lbu	a5,0(a3)
800012d0:	00140413          	addi	s0,s0,1
800012d4:	fe0798e3          	bnez	a5,800012c4 <vsprintf+0xc8>
800012d8:	f55ff06f          	j	8000122c <vsprintf+0x30>
800012dc:	00062583          	lw	a1,0(a2)
800012e0:	00460613          	addi	a2,a2,4
800012e4:	08058463          	beqz	a1,8000136c <vsprintf+0x170>
800012e8:	00000313          	li	t1,0
800012ec:	00900293          	li	t0,9
800012f0:	00130513          	addi	a0,t1,1
800012f4:	02810793          	addi	a5,sp,40
800012f8:	00f5f313          	andi	t1,a1,15
800012fc:	00a787b3          	add	a5,a5,a0
80001300:	0045d593          	srli	a1,a1,0x4
80001304:	05730693          	addi	a3,t1,87
80001308:	0062c463          	blt	t0,t1,80001310 <vsprintf+0x114>
8000130c:	03030693          	addi	a3,t1,48
80001310:	fed78fa3          	sb	a3,-1(a5)
80001314:	00050313          	mv	t1,a0
80001318:	fc059ce3          	bnez	a1,800012f0 <vsprintf+0xf4>
8000131c:	00810593          	addi	a1,sp,8
80001320:	02910313          	addi	t1,sp,41
80001324:	00c0006f          	j	80001330 <vsprintf+0x134>
80001328:	ffe7c683          	lbu	a3,-2(a5)
8000132c:	fff78793          	addi	a5,a5,-1
80001330:	00d58023          	sb	a3,0(a1)
80001334:	00158593          	addi	a1,a1,1
80001338:	fef318e3          	bne	t1,a5,80001328 <vsprintf+0x12c>
8000133c:	03c0006f          	j	80001378 <vsprintf+0x17c>
80001340:	00062783          	lw	a5,0(a2)
80001344:	00460613          	addi	a2,a2,4
80001348:	06078063          	beqz	a5,800013a8 <vsprintf+0x1ac>
8000134c:	0007c683          	lbu	a3,0(a5)
80001350:	ec068ee3          	beqz	a3,8000122c <vsprintf+0x30>
80001354:	00d40023          	sb	a3,0(s0)
80001358:	0017c683          	lbu	a3,1(a5)
8000135c:	00178793          	addi	a5,a5,1
80001360:	00140413          	addi	s0,s0,1
80001364:	fe0698e3          	bnez	a3,80001354 <vsprintf+0x158>
80001368:	ec5ff06f          	j	8000122c <vsprintf+0x30>
8000136c:	03000793          	li	a5,48
80001370:	00f10423          	sb	a5,8(sp)
80001374:	00100513          	li	a0,1
80001378:	04050793          	addi	a5,a0,64
8000137c:	00810693          	addi	a3,sp,8
80001380:	00d78533          	add	a0,a5,a3
80001384:	fc050023          	sb	zero,-64(a0)
80001388:	00814783          	lbu	a5,8(sp)
8000138c:	ea0780e3          	beqz	a5,8000122c <vsprintf+0x30>
80001390:	00168693          	addi	a3,a3,1
80001394:	00f40023          	sb	a5,0(s0)
80001398:	0006c783          	lbu	a5,0(a3)
8000139c:	00140413          	addi	s0,s0,1
800013a0:	fe0798e3          	bnez	a5,80001390 <vsprintf+0x194>
800013a4:	e89ff06f          	j	8000122c <vsprintf+0x30>
800013a8:	00000797          	auipc	a5,0x0
800013ac:	27478793          	addi	a5,a5,628 # 8000161c <mainargs+0xac>
800013b0:	02800693          	li	a3,40
800013b4:	fa1ff06f          	j	80001354 <vsprintf+0x158>
800013b8:	00040023          	sb	zero,0(s0)
800013bc:	05012083          	lw	ra,80(sp)
800013c0:	04c12403          	lw	s0,76(sp)
800013c4:	04812483          	lw	s1,72(sp)
800013c8:	00000513          	li	a0,0
800013cc:	05410113          	addi	sp,sp,84
800013d0:	00008067          	ret

800013d4 <printf>:
800013d4:	bdc10113          	addi	sp,sp,-1060
800013d8:	41010313          	addi	t1,sp,1040
800013dc:	40b12823          	sw	a1,1040(sp)
800013e0:	40c12a23          	sw	a2,1044(sp)
800013e4:	00050593          	mv	a1,a0
800013e8:	00030613          	mv	a2,t1
800013ec:	00410513          	addi	a0,sp,4
800013f0:	40812423          	sw	s0,1032(sp)
800013f4:	40112623          	sw	ra,1036(sp)
800013f8:	40912223          	sw	s1,1028(sp)
800013fc:	40d12c23          	sw	a3,1048(sp)
80001400:	40e12e23          	sw	a4,1052(sp)
80001404:	42f12023          	sw	a5,1056(sp)
80001408:	00612023          	sw	t1,0(sp)
8000140c:	df1ff0ef          	jal	ra,800011fc <vsprintf>
80001410:	00050413          	mv	s0,a0
80001414:	00414503          	lbu	a0,4(sp)
80001418:	00050c63          	beqz	a0,80001430 <printf+0x5c>
8000141c:	00510493          	addi	s1,sp,5
80001420:	00148493          	addi	s1,s1,1
80001424:	c6cff0ef          	jal	ra,80000890 <putch>
80001428:	fff4c503          	lbu	a0,-1(s1)
8000142c:	fe051ae3          	bnez	a0,80001420 <printf+0x4c>
80001430:	40c12083          	lw	ra,1036(sp)
80001434:	00040513          	mv	a0,s0
80001438:	40812403          	lw	s0,1032(sp)
8000143c:	40412483          	lw	s1,1028(sp)
80001440:	42410113          	addi	sp,sp,1060
80001444:	00008067          	ret

80001448 <rand>:
80001448:	00000697          	auipc	a3,0x0
8000144c:	67c68693          	addi	a3,a3,1660 # 80001ac4 <next>
80001450:	0006a783          	lw	a5,0(a3)
80001454:	41c65737          	lui	a4,0x41c65
80001458:	e6d70713          	addi	a4,a4,-403 # 41c64e6d <_entry_offset+0x41c64e6d>
8000145c:	02e787b3          	mul	a5,a5,a4
80001460:	00003737          	lui	a4,0x3
80001464:	03970713          	addi	a4,a4,57 # 3039 <_entry_offset+0x3039>
80001468:	00e787b3          	add	a5,a5,a4
8000146c:	00179513          	slli	a0,a5,0x1
80001470:	00f6a023          	sw	a5,0(a3)
80001474:	01155513          	srli	a0,a0,0x11
80001478:	00008067          	ret
8000147c:	6948                	.2byte	0x6948
8000147e:	3a74                	.2byte	0x3a74
80001480:	2520                	.2byte	0x2520
80001482:	3b64                	.2byte	0x3b64
80001484:	4d20                	.2byte	0x4d20
80001486:	7369                	.2byte	0x7369
80001488:	25203a73          	.4byte	0x25203a73
8000148c:	3b64                	.2byte	0x3b64
8000148e:	5720                	.2byte	0x5720
80001490:	6f72                	.2byte	0x6f72
80001492:	676e                	.2byte	0x676e
80001494:	203a                	.2byte	0x203a
80001496:	6425                	.2byte	0x6425
80001498:	0000                	.2byte	0x0
8000149a:	0000                	.2byte	0x0
8000149c:	4d41                	.2byte	0x4d41
8000149e:	5020                	.2byte	0x5020
800014a0:	6e61                	.2byte	0x6e61
800014a2:	6369                	.2byte	0x6369
800014a4:	203a                	.2byte	0x203a
800014a6:	0000                	.2byte	0x0
800014a8:	6572                	.2byte	0x6572
800014aa:	7571                	.2byte	0x7571
800014ac:	7269                	.2byte	0x7269
800014ae:	7365                	.2byte	0x7365
800014b0:	7420                	.2byte	0x7420
800014b2:	6d69                	.2byte	0x6d69
800014b4:	7265                	.2byte	0x7265
800014b6:	0000                	.2byte	0x0
800014b8:	4020                	.2byte	0x4020
800014ba:	2f20                	.2byte	0x2f20
800014bc:	6f72                	.2byte	0x6f72
800014be:	792f746f          	jal	s0,800f8c50 <_end+0xe3c50>
800014c2:	2d787973          	.4byte	0x2d787973
800014c6:	6b726f77          	.4byte	0x6b726f77
800014ca:	6562                	.2byte	0x6562
800014cc:	636e                	.2byte	0x636e
800014ce:	2f68                	.2byte	0x2f68
800014d0:	6d61                	.2byte	0x6d61
800014d2:	6b2d                	.2byte	0x6b2d
800014d4:	7265                	.2byte	0x7265
800014d6:	656e                	.2byte	0x656e
800014d8:	736c                	.2byte	0x736c
800014da:	72656b2f          	.4byte	0x72656b2f
800014de:	656e                	.2byte	0x656e
800014e0:	736c                	.2byte	0x736c
800014e2:	7079742f          	.4byte	0x7079742f
800014e6:	6e69                	.2byte	0x6e69
800014e8:	61672d67          	.4byte	0x61672d67
800014ec:	656d                	.2byte	0x656d
800014ee:	6d61672f          	.4byte	0x6d61672f
800014f2:	2e65                	.2byte	0x2e65
800014f4:	35313a63          	.4byte	0x35313a63
800014f8:	2030                	.2byte	0x2030
800014fa:	0a20                	.2byte	0xa20
800014fc:	0000                	.2byte	0x0
800014fe:	0000                	.2byte	0x0
80001500:	6572                	.2byte	0x6572
80001502:	7571                	.2byte	0x7571
80001504:	7269                	.2byte	0x7269
80001506:	7365                	.2byte	0x7365
80001508:	6b20                	.2byte	0x6b20
8000150a:	7965                	.2byte	0x7965
8000150c:	6f62                	.2byte	0x6f62
8000150e:	7261                	.2byte	0x7261
80001510:	0064                	.2byte	0x64
80001512:	0000                	.2byte	0x0
80001514:	4020                	.2byte	0x4020
80001516:	2f20                	.2byte	0x2f20
80001518:	6f72                	.2byte	0x6f72
8000151a:	792f746f          	jal	s0,800f8cac <_end+0xe3cac>
8000151e:	2d787973          	.4byte	0x2d787973
80001522:	6b726f77          	.4byte	0x6b726f77
80001526:	6562                	.2byte	0x6562
80001528:	636e                	.2byte	0x636e
8000152a:	2f68                	.2byte	0x2f68
8000152c:	6d61                	.2byte	0x6d61
8000152e:	6b2d                	.2byte	0x6b2d
80001530:	7265                	.2byte	0x7265
80001532:	656e                	.2byte	0x656e
80001534:	736c                	.2byte	0x736c
80001536:	72656b2f          	.4byte	0x72656b2f
8000153a:	656e                	.2byte	0x656e
8000153c:	736c                	.2byte	0x736c
8000153e:	7079742f          	.4byte	0x7079742f
80001542:	6e69                	.2byte	0x6e69
80001544:	61672d67          	.4byte	0x61672d67
80001548:	656d                	.2byte	0x656d
8000154a:	6d61672f          	.4byte	0x6d61672f
8000154e:	2e65                	.2byte	0x2e65
80001550:	35313a63          	.4byte	0x35313a63
80001554:	2031                	.2byte	0x2031
80001556:	0a20                	.2byte	0xa20
80001558:	0000                	.2byte	0x0
8000155a:	0000                	.2byte	0x0
8000155c:	7954                	.2byte	0x7954
8000155e:	6570                	.2byte	0x6570
80001560:	2720                	.2byte	0x2720
80001562:	5345                	.2byte	0x5345
80001564:	74202743          	.4byte	0x74202743
80001568:	7865206f          	j	80053cee <_end+0x3ecee>
8000156c:	7469                	.2byte	0x7469
8000156e:	000a                	.2byte	0xa

80001570 <mainargs>:
80001570:	6854 2065 6e69 6573 7472 612d 6772 7220     The insert-arg r
80001580:	6c75 2065 6e69 4d20 6b61 6665 6c69 2065     ule in Makefile 
80001590:	6977 6c6c 6920 736e 7265 2074 616d 6e69     will insert main
800015a0:	7261 7367 6820 7265 2e65 0000 0000 0000     args here.......
800015b0:	6361 6563 7373 6e20 6e6f 7865 7369 2074     access nonexist 
800015c0:	6572 6967 7473 7265 0000 0000 4020 2f20     register.... @ /
800015d0:	6f72 746f 792f 7973 2d78 6f77 6b72 6562     root/ysyx-workbe
800015e0:	636e 2f68 6261 7473 6172 7463 6d2d 6361     nch/abstract-mac
800015f0:	6968 656e 612f 2f6d 7273 2f63 6c70 7461     hine/am/src/plat
80001600:	6f66 6d72 6e2f 6d65 2f75 6f69 2f65 6f69     form/nemu/ioe/io
80001610:	2e65 3a63 3734 2020 000a 0000 6e28 6c75     e.c:47  ....(nul
80001620:	296c                                         l).
