
/root/ysyx-workbench/am-kernels/tests/am-tests/build/amtest-riscv32e-npc.elf:     file format elf32-littleriscv


Disassembly of section .text:

80000000 <_start>:
80000000:	00000413          	li	s0,0
80000004:	0009d117          	auipc	sp,0x9d
80000008:	ffc10113          	addi	sp,sp,-4 # 8009d000 <_end>
8000000c:	098010ef          	jal	ra,800010a4 <_trm_init>

80000010 <main>:
80000010:	ff410113          	addi	sp,sp,-12
80000014:	00112423          	sw	ra,8(sp)
80000018:	00812223          	sw	s0,4(sp)
8000001c:	00912023          	sw	s1,0(sp)
80000020:	00054783          	lbu	a5,0(a0)
80000024:	01500713          	li	a4,21
80000028:	f9f78793          	addi	a5,a5,-97
8000002c:	0ff7f793          	zext.b	a5,a5
80000030:	02f76063          	bltu	a4,a5,80000050 <main+0x40>
80000034:	00002717          	auipc	a4,0x2
80000038:	e3470713          	addi	a4,a4,-460 # 80001e68 <memcpy+0x4c>
8000003c:	00279793          	slli	a5,a5,0x2
80000040:	00e787b3          	add	a5,a5,a4
80000044:	0007a783          	lw	a5,0(a5)
80000048:	00e787b3          	add	a5,a5,a4
8000004c:	00078067          	jr	a5
80000050:	00002517          	auipc	a0,0x2
80000054:	df050513          	addi	a0,a0,-528 # 80001e40 <memcpy+0x24>
80000058:	475010ef          	jal	ra,80001ccc <printf>
8000005c:	00002497          	auipc	s1,0x2
80000060:	f2448493          	addi	s1,s1,-220 # 80001f80 <tests+0x4>
80000064:	00000413          	li	s0,0
80000068:	00140413          	addi	s0,s0,1
8000006c:	10000793          	li	a5,256
80000070:	02f40e63          	beq	s0,a5,800000ac <main+0x9c>
80000074:	0004a603          	lw	a2,0(s1)
80000078:	00060a63          	beqz	a2,8000008c <main+0x7c>
8000007c:	00040593          	mv	a1,s0
80000080:	00002517          	auipc	a0,0x2
80000084:	ddc50513          	addi	a0,a0,-548 # 80001e5c <memcpy+0x40>
80000088:	445010ef          	jal	ra,80001ccc <printf>
8000008c:	00448493          	addi	s1,s1,4
80000090:	fd9ff06f          	j	80000068 <main+0x58>
80000094:	00000797          	auipc	a5,0x0
80000098:	13878793          	addi	a5,a5,312 # 800001cc <audio_test>
8000009c:	00095717          	auipc	a4,0x95
800000a0:	d0f72623          	sw	a5,-756(a4) # 80094da8 <entry>
800000a4:	0a8010ef          	jal	ra,8000114c <ioe_init>
800000a8:	124000ef          	jal	ra,800001cc <audio_test>
800000ac:	00812083          	lw	ra,8(sp)
800000b0:	00412403          	lw	s0,4(sp)
800000b4:	00012483          	lw	s1,0(sp)
800000b8:	00000513          	li	a0,0
800000bc:	00c10113          	addi	sp,sp,12
800000c0:	00008067          	ret
800000c4:	00000797          	auipc	a5,0x0
800000c8:	2e078793          	addi	a5,a5,736 # 800003a4 <devscan>
800000cc:	00095717          	auipc	a4,0x95
800000d0:	ccf72e23          	sw	a5,-804(a4) # 80094da8 <entry>
800000d4:	078010ef          	jal	ra,8000114c <ioe_init>
800000d8:	2cc000ef          	jal	ra,800003a4 <devscan>
800000dc:	fd1ff06f          	j	800000ac <main+0x9c>
800000e0:	00000797          	auipc	a5,0x0
800000e4:	6a478793          	addi	a5,a5,1700 # 80000784 <hello>
800000e8:	00095717          	auipc	a4,0x95
800000ec:	ccf72023          	sw	a5,-832(a4) # 80094da8 <entry>
800000f0:	694000ef          	jal	ra,80000784 <hello>
800000f4:	fb9ff06f          	j	800000ac <main+0x9c>
800000f8:	00000797          	auipc	a5,0x0
800000fc:	62478793          	addi	a5,a5,1572 # 8000071c <hello_intr>
80000100:	00095717          	auipc	a4,0x95
80000104:	caf72423          	sw	a5,-856(a4) # 80094da8 <entry>
80000108:	044010ef          	jal	ra,8000114c <ioe_init>
8000010c:	00000517          	auipc	a0,0x0
80000110:	53450513          	addi	a0,a0,1332 # 80000640 <simple_trap>
80000114:	1c0010ef          	jal	ra,800012d4 <cte_init>
80000118:	604000ef          	jal	ra,8000071c <hello_intr>
8000011c:	f91ff06f          	j	800000ac <main+0x9c>
80000120:	00001797          	auipc	a5,0x1
80000124:	ad878793          	addi	a5,a5,-1320 # 80000bf8 <keyboard_test>
80000128:	00095717          	auipc	a4,0x95
8000012c:	c8f72023          	sw	a5,-896(a4) # 80094da8 <entry>
80000130:	01c010ef          	jal	ra,8000114c <ioe_init>
80000134:	2c5000ef          	jal	ra,80000bf8 <keyboard_test>
80000138:	f75ff06f          	j	800000ac <main+0x9c>
8000013c:	00001797          	auipc	a5,0x1
80000140:	f2c78793          	addi	a5,a5,-212 # 80001068 <mp_print>
80000144:	00078513          	mv	a0,a5
80000148:	00095717          	auipc	a4,0x95
8000014c:	c6f72023          	sw	a5,-928(a4) # 80094da8 <entry>
80000150:	284010ef          	jal	ra,800013d4 <mpe_init>
80000154:	715000ef          	jal	ra,80001068 <mp_print>
80000158:	f55ff06f          	j	800000ac <main+0x9c>
8000015c:	00001797          	auipc	a5,0x1
80000160:	d9478793          	addi	a5,a5,-620 # 80000ef0 <vm_test>
80000164:	00001517          	auipc	a0,0x1
80000168:	c1450513          	addi	a0,a0,-1004 # 80000d78 <vm_handler>
8000016c:	00095717          	auipc	a4,0x95
80000170:	c2f72e23          	sw	a5,-964(a4) # 80094da8 <entry>
80000174:	160010ef          	jal	ra,800012d4 <cte_init>
80000178:	00001597          	auipc	a1,0x1
8000017c:	bfc58593          	addi	a1,a1,-1028 # 80000d74 <simple_pgfree>
80000180:	00001517          	auipc	a0,0x1
80000184:	b6c50513          	addi	a0,a0,-1172 # 80000cec <simple_pgalloc>
80000188:	22c010ef          	jal	ra,800013b4 <vme_init>
8000018c:	565000ef          	jal	ra,80000ef0 <vm_test>
80000190:	f1dff06f          	j	800000ac <main+0x9c>
80000194:	00000797          	auipc	a5,0x0
80000198:	14478793          	addi	a5,a5,324 # 800002d8 <rtc_test>
8000019c:	00095717          	auipc	a4,0x95
800001a0:	c0f72623          	sw	a5,-1012(a4) # 80094da8 <entry>
800001a4:	7a9000ef          	jal	ra,8000114c <ioe_init>
800001a8:	130000ef          	jal	ra,800002d8 <rtc_test>
800001ac:	f01ff06f          	j	800000ac <main+0x9c>
800001b0:	00001797          	auipc	a5,0x1
800001b4:	9ac78793          	addi	a5,a5,-1620 # 80000b5c <video_test>
800001b8:	00095717          	auipc	a4,0x95
800001bc:	bef72823          	sw	a5,-1040(a4) # 80094da8 <entry>
800001c0:	78d000ef          	jal	ra,8000114c <ioe_init>
800001c4:	199000ef          	jal	ra,80000b5c <video_test>
800001c8:	ee5ff06f          	j	800000ac <main+0x9c>

800001cc <audio_test>:
800001cc:	fe410113          	addi	sp,sp,-28
800001d0:	00410593          	addi	a1,sp,4
800001d4:	00e00513          	li	a0,14
800001d8:	00112c23          	sw	ra,24(sp)
800001dc:	00812a23          	sw	s0,20(sp)
800001e0:	00912823          	sw	s1,16(sp)
800001e4:	7bd000ef          	jal	ra,800011a0 <ioe_read>
800001e8:	00414783          	lbu	a5,4(sp)
800001ec:	0c078463          	beqz	a5,800002b4 <audio_test+0xe8>
800001f0:	000027b7          	lui	a5,0x2
800001f4:	f4078793          	addi	a5,a5,-192 # 1f40 <_entry_offset+0x1f40>
800001f8:	00f12223          	sw	a5,4(sp)
800001fc:	00100793          	li	a5,1
80000200:	00f12423          	sw	a5,8(sp)
80000204:	00410593          	addi	a1,sp,4
80000208:	40000793          	li	a5,1024
8000020c:	00f00513          	li	a0,15
80000210:	00f12623          	sw	a5,12(sp)
80000214:	7a9000ef          	jal	ra,800011bc <ioe_write>
80000218:	00010797          	auipc	a5,0x10
8000021c:	75c78793          	addi	a5,a5,1884 # 80010974 <code>
80000220:	00003697          	auipc	a3,0x3
80000224:	94868693          	addi	a3,a3,-1720 # 80002b68 <audio_payload>
80000228:	40d784b3          	sub	s1,a5,a3
8000022c:	06d78063          	beq	a5,a3,8000028c <audio_test+0xc0>
80000230:	00000413          	li	s0,0
80000234:	00000793          	li	a5,0
80000238:	40f487b3          	sub	a5,s1,a5
8000023c:	00001737          	lui	a4,0x1
80000240:	00068613          	mv	a2,a3
80000244:	00410593          	addi	a1,sp,4
80000248:	01100513          	li	a0,17
8000024c:	00f77463          	bgeu	a4,a5,80000254 <audio_test+0x88>
80000250:	000017b7          	lui	a5,0x1
80000254:	00f686b3          	add	a3,a3,a5
80000258:	00f40433          	add	s0,s0,a5
8000025c:	00d12423          	sw	a3,8(sp)
80000260:	00d12023          	sw	a3,0(sp)
80000264:	00c12223          	sw	a2,4(sp)
80000268:	755000ef          	jal	ra,800011bc <ioe_write>
8000026c:	00048613          	mv	a2,s1
80000270:	00040593          	mv	a1,s0
80000274:	00002517          	auipc	a0,0x2
80000278:	13c50513          	addi	a0,a0,316 # 800023b0 <tests+0x434>
8000027c:	251010ef          	jal	ra,80001ccc <printf>
80000280:	00012683          	lw	a3,0(sp)
80000284:	00040793          	mv	a5,s0
80000288:	fa9468e3          	bltu	s0,s1,80000238 <audio_test+0x6c>
8000028c:	00410593          	addi	a1,sp,4
80000290:	01000513          	li	a0,16
80000294:	70d000ef          	jal	ra,800011a0 <ioe_read>
80000298:	00412783          	lw	a5,4(sp)
8000029c:	fef048e3          	bgtz	a5,8000028c <audio_test+0xc0>
800002a0:	01812083          	lw	ra,24(sp)
800002a4:	01412403          	lw	s0,20(sp)
800002a8:	01012483          	lw	s1,16(sp)
800002ac:	01c10113          	addi	sp,sp,28
800002b0:	00008067          	ret
800002b4:	01412403          	lw	s0,20(sp)
800002b8:	01812083          	lw	ra,24(sp)
800002bc:	01012483          	lw	s1,16(sp)
800002c0:	00002597          	auipc	a1,0x2
800002c4:	0bc58593          	addi	a1,a1,188 # 8000237c <tests+0x400>
800002c8:	00002517          	auipc	a0,0x2
800002cc:	0c450513          	addi	a0,a0,196 # 8000238c <tests+0x410>
800002d0:	01c10113          	addi	sp,sp,28
800002d4:	1f90106f          	j	80001ccc <printf>

800002d8 <rtc_test>:
800002d8:	fc810113          	addi	sp,sp,-56
800002dc:	02812823          	sw	s0,48(sp)
800002e0:	00100793          	li	a5,1
800002e4:	02710413          	addi	s0,sp,39
800002e8:	02912623          	sw	s1,44(sp)
800002ec:	02112a23          	sw	ra,52(sp)
800002f0:	ff847413          	andi	s0,s0,-8
800002f4:	00f12223          	sw	a5,4(sp)
800002f8:	00000493          	li	s1,0
800002fc:	00040593          	mv	a1,s0
80000300:	00600513          	li	a0,6
80000304:	69d000ef          	jal	ra,800011a0 <ioe_read>
80000308:	00042503          	lw	a0,0(s0)
8000030c:	00442583          	lw	a1,4(s0)
80000310:	000f4637          	lui	a2,0xf4
80000314:	24060613          	addi	a2,a2,576 # f4240 <_entry_offset+0xf4240>
80000318:	00000693          	li	a3,0
8000031c:	5a8010ef          	jal	ra,800018c4 <__udivdi3>
80000320:	fc95eee3          	bltu	a1,s1,800002fc <rtc_test+0x24>
80000324:	00b49663          	bne	s1,a1,80000330 <rtc_test+0x58>
80000328:	00412783          	lw	a5,4(sp)
8000032c:	fcf568e3          	bltu	a0,a5,800002fc <rtc_test+0x24>
80000330:	00810593          	addi	a1,sp,8
80000334:	00500513          	li	a0,5
80000338:	669000ef          	jal	ra,800011a0 <ioe_read>
8000033c:	01c12503          	lw	a0,28(sp)
80000340:	01812783          	lw	a5,24(sp)
80000344:	01412703          	lw	a4,20(sp)
80000348:	00812583          	lw	a1,8(sp)
8000034c:	01012683          	lw	a3,16(sp)
80000350:	00c12603          	lw	a2,12(sp)
80000354:	00a12023          	sw	a0,0(sp)
80000358:	00002517          	auipc	a0,0x2
8000035c:	07c50513          	addi	a0,a0,124 # 800023d4 <tests+0x458>
80000360:	16d010ef          	jal	ra,80001ccc <printf>
80000364:	00412703          	lw	a4,4(sp)
80000368:	00100793          	li	a5,1
8000036c:	00100593          	li	a1,1
80000370:	00002517          	auipc	a0,0x2
80000374:	08450513          	addi	a0,a0,132 # 800023f4 <tests+0x478>
80000378:	00f70863          	beq	a4,a5,80000388 <rtc_test+0xb0>
8000037c:	00412583          	lw	a1,4(sp)
80000380:	00002517          	auipc	a0,0x2
80000384:	08450513          	addi	a0,a0,132 # 80002404 <tests+0x488>
80000388:	145010ef          	jal	ra,80001ccc <printf>
8000038c:	00412703          	lw	a4,4(sp)
80000390:	00170793          	addi	a5,a4,1 # 1001 <_entry_offset+0x1001>
80000394:	00e7b733          	sltu	a4,a5,a4
80000398:	009704b3          	add	s1,a4,s1
8000039c:	00f12223          	sw	a5,4(sp)
800003a0:	f5dff06f          	j	800002fc <rtc_test+0x24>

800003a4 <devscan>:
800003a4:	00010797          	auipc	a5,0x10
800003a8:	5e478793          	addi	a5,a5,1508 # 80010988 <heap>
800003ac:	0047a603          	lw	a2,4(a5)
800003b0:	0007a583          	lw	a1,0(a5)
800003b4:	fcc10113          	addi	sp,sp,-52
800003b8:	00002517          	auipc	a0,0x2
800003bc:	05c50513          	addi	a0,a0,92 # 80002414 <tests+0x498>
800003c0:	02112823          	sw	ra,48(sp)
800003c4:	02812623          	sw	s0,44(sp)
800003c8:	02912423          	sw	s1,40(sp)
800003cc:	101010ef          	jal	ra,80001ccc <printf>
800003d0:	02310413          	addi	s0,sp,35
800003d4:	00002517          	auipc	a0,0x2
800003d8:	05850513          	addi	a0,a0,88 # 8000242c <tests+0x4b0>
800003dc:	0f1010ef          	jal	ra,80001ccc <printf>
800003e0:	ff847413          	andi	s0,s0,-8
800003e4:	00040593          	mv	a1,s0
800003e8:	00600513          	li	a0,6
800003ec:	5b5000ef          	jal	ra,800011a0 <ioe_read>
800003f0:	00042503          	lw	a0,0(s0)
800003f4:	00442583          	lw	a1,4(s0)
800003f8:	3e800613          	li	a2,1000
800003fc:	00000693          	li	a3,0
80000400:	4c4010ef          	jal	ra,800018c4 <__udivdi3>
80000404:	00012423          	sw	zero,8(sp)
80000408:	00812783          	lw	a5,8(sp)
8000040c:	00989737          	lui	a4,0x989
80000410:	67f70713          	addi	a4,a4,1663 # 98967f <_entry_offset+0x98967f>
80000414:	00050493          	mv	s1,a0
80000418:	00f74c63          	blt	a4,a5,80000430 <devscan+0x8c>
8000041c:	00812783          	lw	a5,8(sp)
80000420:	00178793          	addi	a5,a5,1
80000424:	00f12423          	sw	a5,8(sp)
80000428:	00812783          	lw	a5,8(sp)
8000042c:	fef758e3          	bge	a4,a5,8000041c <devscan+0x78>
80000430:	00040593          	mv	a1,s0
80000434:	00600513          	li	a0,6
80000438:	569000ef          	jal	ra,800011a0 <ioe_read>
8000043c:	00042503          	lw	a0,0(s0)
80000440:	00442583          	lw	a1,4(s0)
80000444:	3e800613          	li	a2,1000
80000448:	00000693          	li	a3,0
8000044c:	478010ef          	jal	ra,800018c4 <__udivdi3>
80000450:	409505b3          	sub	a1,a0,s1
80000454:	00002517          	auipc	a0,0x2
80000458:	ff450513          	addi	a0,a0,-12 # 80002448 <tests+0x4cc>
8000045c:	071010ef          	jal	ra,80001ccc <printf>
80000460:	00c10593          	addi	a1,sp,12
80000464:	00900513          	li	a0,9
80000468:	539000ef          	jal	ra,800011a0 <ioe_read>
8000046c:	01412783          	lw	a5,20(sp)
80000470:	01012583          	lw	a1,16(sp)
80000474:	00002517          	auipc	a0,0x2
80000478:	ff450513          	addi	a0,a0,-12 # 80002468 <tests+0x4ec>
8000047c:	00078613          	mv	a2,a5
80000480:	00b12023          	sw	a1,0(sp)
80000484:	00f12223          	sw	a5,4(sp)
80000488:	00011497          	auipc	s1,0x11
8000048c:	9e048493          	addi	s1,s1,-1568 # 80010e68 <vmem+0xd0>
80000490:	03d010ef          	jal	ra,80001ccc <printf>
80000494:	00091417          	auipc	s0,0x91
80000498:	90440413          	addi	s0,s0,-1788 # 80090d98 <canvas>
8000049c:	0a5010ef          	jal	ra,80001d40 <rand>
800004a0:	00a48023          	sb	a0,0(s1)
800004a4:	00148493          	addi	s1,s1,1
800004a8:	fe849ae3          	bne	s1,s0,8000049c <devscan+0xf8>
800004ac:	00012783          	lw	a5,0(sp)
800004b0:	00412603          	lw	a2,4(sp)
800004b4:	ffff02b7          	lui	t0,0xffff0
800004b8:	41f7d713          	srai	a4,a5,0x1f
800004bc:	00377713          	andi	a4,a4,3
800004c0:	01f7d693          	srli	a3,a5,0x1f
800004c4:	00f70733          	add	a4,a4,a5
800004c8:	40275713          	srai	a4,a4,0x2
800004cc:	00f686b3          	add	a3,a3,a5
800004d0:	00011797          	auipc	a5,0x11
800004d4:	8c878793          	addi	a5,a5,-1848 # 80010d98 <vmem>
800004d8:	00e79323          	sh	a4,6(a5)
800004dc:	00011717          	auipc	a4,0x11
800004e0:	8c071223          	sh	zero,-1852(a4) # 80010da0 <vmem+0x8>
800004e4:	02500713          	li	a4,37
800004e8:	00e79923          	sh	a4,18(a5)
800004ec:	00a00713          	li	a4,10
800004f0:	fff00313          	li	t1,-1
800004f4:	4016d693          	srai	a3,a3,0x1
800004f8:	00128293          	addi	t0,t0,1 # ffff0001 <_end+0x7ff53001>
800004fc:	f9c60613          	addi	a2,a2,-100
80000500:	00e79a23          	sh	a4,20(a5)
80000504:	0d000713          	li	a4,208
80000508:	00e79b23          	sh	a4,22(a5)
8000050c:	0057a023          	sw	t0,0(a5)
80000510:	00679223          	sh	t1,4(a5)
80000514:	00d79523          	sh	a3,10(a5)
80000518:	00679723          	sh	t1,14(a5)
8000051c:	00679823          	sh	t1,16(a5)
80000520:	00c79623          	sh	a2,12(a5)
80000524:	00c10593          	addi	a1,sp,12
80000528:	00c00513          	li	a0,12
8000052c:	00f12823          	sw	a5,16(sp)
80000530:	000807b7          	lui	a5,0x80
80000534:	00f12a23          	sw	a5,20(sp)
80000538:	00011717          	auipc	a4,0x11
8000053c:	86071c23          	sh	zero,-1928(a4) # 80010db0 <vmem+0x18>
80000540:	00012623          	sw	zero,12(sp)
80000544:	479000ef          	jal	ra,800011bc <ioe_write>
80000548:	00d00513          	li	a0,13
8000054c:	00c10593          	addi	a1,sp,12
80000550:	00012623          	sw	zero,12(sp)
80000554:	469000ef          	jal	ra,800011bc <ioe_write>
80000558:	00c10593          	addi	a1,sp,12
8000055c:	01200513          	li	a0,18
80000560:	441000ef          	jal	ra,800011a0 <ioe_read>
80000564:	01012483          	lw	s1,16(sp)
80000568:	01412583          	lw	a1,20(sp)
8000056c:	00002517          	auipc	a0,0x2
80000570:	f1450513          	addi	a0,a0,-236 # 80002480 <tests+0x504>
80000574:	00048613          	mv	a2,s1
80000578:	754010ef          	jal	ra,80001ccc <printf>
8000057c:	00010417          	auipc	s0,0x10
80000580:	61c40413          	addi	s0,s0,1564 # 80010b98 <buf.0>
80000584:	00048593          	mv	a1,s1
80000588:	20000513          	li	a0,512
8000058c:	00812823          	sw	s0,16(sp)
80000590:	00010623          	sb	zero,12(sp)
80000594:	00012a23          	sw	zero,20(sp)
80000598:	64d000ef          	jal	ra,800013e4 <__divsi3>
8000059c:	00050793          	mv	a5,a0
800005a0:	00c10593          	addi	a1,sp,12
800005a4:	01400513          	li	a0,20
800005a8:	00f12c23          	sw	a5,24(sp)
800005ac:	411000ef          	jal	ra,800011bc <ioe_write>
800005b0:	00144603          	lbu	a2,1(s0)
800005b4:	00044583          	lbu	a1,0(s0)
800005b8:	00002517          	auipc	a0,0x2
800005bc:	f0050513          	addi	a0,a0,-256 # 800024b8 <tests+0x53c>
800005c0:	00002497          	auipc	s1,0x2
800005c4:	ef848493          	addi	s1,s1,-264 # 800024b8 <tests+0x53c>
800005c8:	704010ef          	jal	ra,80001ccc <printf>
800005cc:	00010417          	auipc	s0,0x10
800005d0:	5ce40413          	addi	s0,s0,1486 # 80010b9a <buf.0+0x2>
800005d4:	00010797          	auipc	a5,0x10
800005d8:	7c478793          	addi	a5,a5,1988 # 80010d98 <vmem>
800005dc:	00048513          	mv	a0,s1
800005e0:	02f40e63          	beq	s0,a5,8000061c <devscan+0x278>
800005e4:	00144603          	lbu	a2,1(s0)
800005e8:	00044583          	lbu	a1,0(s0)
800005ec:	6e0010ef          	jal	ra,80001ccc <printf>
800005f0:	00010797          	auipc	a5,0x10
800005f4:	5a878793          	addi	a5,a5,1448 # 80010b98 <buf.0>
800005f8:	40f40733          	sub	a4,s0,a5
800005fc:	00270713          	addi	a4,a4,2
80000600:	01f77713          	andi	a4,a4,31
80000604:	02070463          	beqz	a4,8000062c <devscan+0x288>
80000608:	00240413          	addi	s0,s0,2
8000060c:	00010797          	auipc	a5,0x10
80000610:	78c78793          	addi	a5,a5,1932 # 80010d98 <vmem>
80000614:	00048513          	mv	a0,s1
80000618:	fcf416e3          	bne	s0,a5,800005e4 <devscan+0x240>
8000061c:	00002517          	auipc	a0,0x2
80000620:	ea850513          	addi	a0,a0,-344 # 800024c4 <tests+0x548>
80000624:	6a8010ef          	jal	ra,80001ccc <printf>
80000628:	0000006f          	j	80000628 <devscan+0x284>
8000062c:	00002517          	auipc	a0,0x2
80000630:	4f050513          	addi	a0,a0,1264 # 80002b1c <mainargs+0xa0>
80000634:	698010ef          	jal	ra,80001ccc <printf>
80000638:	00240413          	addi	s0,s0,2
8000063c:	fd1ff06f          	j	8000060c <devscan+0x268>

80000640 <simple_trap>:
80000640:	00052783          	lw	a5,0(a0)
80000644:	ff410113          	addi	sp,sp,-12
80000648:	00812223          	sw	s0,4(sp)
8000064c:	00112423          	sw	ra,8(sp)
80000650:	00500713          	li	a4,5
80000654:	00058413          	mv	s0,a1
80000658:	0ae78463          	beq	a5,a4,80000700 <simple_trap+0xc0>
8000065c:	00600713          	li	a4,6
80000660:	08e78263          	beq	a5,a4,800006e4 <simple_trap+0xa4>
80000664:	00100713          	li	a4,1
80000668:	06e78063          	beq	a5,a4,800006c8 <simple_trap+0x88>
8000066c:	00002417          	auipc	s0,0x2
80000670:	e6440413          	addi	s0,s0,-412 # 800024d0 <tests+0x554>
80000674:	04100513          	li	a0,65
80000678:	00140413          	addi	s0,s0,1
8000067c:	215000ef          	jal	ra,80001090 <putch>
80000680:	00044503          	lbu	a0,0(s0)
80000684:	fe051ae3          	bnez	a0,80000678 <simple_trap+0x38>
80000688:	00002417          	auipc	s0,0x2
8000068c:	e5440413          	addi	s0,s0,-428 # 800024dc <tests+0x560>
80000690:	05500513          	li	a0,85
80000694:	00140413          	addi	s0,s0,1
80000698:	1f9000ef          	jal	ra,80001090 <putch>
8000069c:	00044503          	lbu	a0,0(s0)
800006a0:	fe051ae3          	bnez	a0,80000694 <simple_trap+0x54>
800006a4:	00002417          	auipc	s0,0x2
800006a8:	e4840413          	addi	s0,s0,-440 # 800024ec <tests+0x570>
800006ac:	02000513          	li	a0,32
800006b0:	00140413          	addi	s0,s0,1
800006b4:	1dd000ef          	jal	ra,80001090 <putch>
800006b8:	00044503          	lbu	a0,0(s0)
800006bc:	fe051ae3          	bnez	a0,800006b0 <simple_trap+0x70>
800006c0:	00100513          	li	a0,1
800006c4:	1d9000ef          	jal	ra,8000109c <halt>
800006c8:	07900513          	li	a0,121
800006cc:	1c5000ef          	jal	ra,80001090 <putch>
800006d0:	00812083          	lw	ra,8(sp)
800006d4:	00040513          	mv	a0,s0
800006d8:	00412403          	lw	s0,4(sp)
800006dc:	00c10113          	addi	sp,sp,12
800006e0:	00008067          	ret
800006e4:	06400513          	li	a0,100
800006e8:	1a9000ef          	jal	ra,80001090 <putch>
800006ec:	00812083          	lw	ra,8(sp)
800006f0:	00040513          	mv	a0,s0
800006f4:	00412403          	lw	s0,4(sp)
800006f8:	00c10113          	addi	sp,sp,12
800006fc:	00008067          	ret
80000700:	07400513          	li	a0,116
80000704:	18d000ef          	jal	ra,80001090 <putch>
80000708:	00812083          	lw	ra,8(sp)
8000070c:	00040513          	mv	a0,s0
80000710:	00412403          	lw	s0,4(sp)
80000714:	00c10113          	addi	sp,sp,12
80000718:	00008067          	ret

8000071c <hello_intr>:
8000071c:	ff010113          	addi	sp,sp,-16
80000720:	00002517          	auipc	a0,0x2
80000724:	e1850513          	addi	a0,a0,-488 # 80002538 <tests+0x5bc>
80000728:	00112623          	sw	ra,12(sp)
8000072c:	00812423          	sw	s0,8(sp)
80000730:	59c010ef          	jal	ra,80001ccc <printf>
80000734:	00002517          	auipc	a0,0x2
80000738:	e2050513          	addi	a0,a0,-480 # 80002554 <tests+0x5d8>
8000073c:	590010ef          	jal	ra,80001ccc <printf>
80000740:	00010593          	mv	a1,sp
80000744:	00700513          	li	a0,7
80000748:	259000ef          	jal	ra,800011a0 <ioe_read>
8000074c:	00100513          	li	a0,1
80000750:	00989437          	lui	s0,0x989
80000754:	3ad000ef          	jal	ra,80001300 <iset>
80000758:	67f40413          	addi	s0,s0,1663 # 98967f <_entry_offset+0x98967f>
8000075c:	00012023          	sw	zero,0(sp)
80000760:	00012783          	lw	a5,0(sp)
80000764:	00f44c63          	blt	s0,a5,8000077c <hello_intr+0x60>
80000768:	00012783          	lw	a5,0(sp)
8000076c:	00178793          	addi	a5,a5,1
80000770:	00f12023          	sw	a5,0(sp)
80000774:	00012783          	lw	a5,0(sp)
80000778:	fef458e3          	bge	s0,a5,80000768 <hello_intr+0x4c>
8000077c:	379000ef          	jal	ra,800012f4 <yield>
80000780:	fddff06f          	j	8000075c <hello_intr+0x40>

80000784 <hello>:
80000784:	ff410113          	addi	sp,sp,-12
80000788:	00812223          	sw	s0,4(sp)
8000078c:	00112423          	sw	ra,8(sp)
80000790:	00912023          	sw	s1,0(sp)
80000794:	00a00413          	li	s0,10
80000798:	00002497          	auipc	s1,0x2
8000079c:	da048493          	addi	s1,s1,-608 # 80002538 <tests+0x5bc>
800007a0:	04800513          	li	a0,72
800007a4:	00148493          	addi	s1,s1,1
800007a8:	0e9000ef          	jal	ra,80001090 <putch>
800007ac:	0004c503          	lbu	a0,0(s1)
800007b0:	fe051ae3          	bnez	a0,800007a4 <hello+0x20>
800007b4:	fff40413          	addi	s0,s0,-1
800007b8:	fe0410e3          	bnez	s0,80000798 <hello+0x14>
800007bc:	00812083          	lw	ra,8(sp)
800007c0:	00412403          	lw	s0,4(sp)
800007c4:	00012483          	lw	s1,0(sp)
800007c8:	00c10113          	addi	sp,sp,12
800007cc:	00008067          	ret

800007d0 <redraw>:
800007d0:	fc410113          	addi	sp,sp,-60
800007d4:	01810593          	addi	a1,sp,24
800007d8:	00900513          	li	a0,9
800007dc:	02112c23          	sw	ra,56(sp)
800007e0:	02812a23          	sw	s0,52(sp)
800007e4:	02912823          	sw	s1,48(sp)
800007e8:	1b9000ef          	jal	ra,800011a0 <ioe_read>
800007ec:	01c12783          	lw	a5,28(sp)
800007f0:	01810593          	addi	a1,sp,24
800007f4:	00900513          	li	a0,9
800007f8:	41f7d413          	srai	s0,a5,0x1f
800007fc:	01f47413          	andi	s0,s0,31
80000800:	00f40433          	add	s0,s0,a5
80000804:	19d000ef          	jal	ra,800011a0 <ioe_read>
80000808:	02012703          	lw	a4,32(sp)
8000080c:	40545413          	srai	s0,s0,0x5
80000810:	00040513          	mv	a0,s0
80000814:	41f75793          	srai	a5,a4,0x1f
80000818:	01f7f793          	andi	a5,a5,31
8000081c:	00e787b3          	add	a5,a5,a4
80000820:	4057d793          	srai	a5,a5,0x5
80000824:	00078593          	mv	a1,a5
80000828:	00f12823          	sw	a5,16(sp)
8000082c:	46d000ef          	jal	ra,80001498 <__mulsi3>
80000830:	00a12a23          	sw	a0,20(sp)
80000834:	40000793          	li	a5,1024
80000838:	12a7e663          	bltu	a5,a0,80000964 <redraw+0x194>
8000083c:	00090797          	auipc	a5,0x90
80000840:	5dc78793          	addi	a5,a5,1500 # 80090e18 <canvas+0x80>
80000844:	00251693          	slli	a3,a0,0x2
80000848:	00f12623          	sw	a5,12(sp)
8000084c:	00091797          	auipc	a5,0x91
80000850:	54c78793          	addi	a5,a5,1356 # 80091d98 <color_buf>
80000854:	00d784b3          	add	s1,a5,a3
80000858:	00048793          	mv	a5,s1
8000085c:	00012423          	sw	zero,8(sp)
80000860:	00040493          	mv	s1,s0
80000864:	00078413          	mv	s0,a5
80000868:	00c12783          	lw	a5,12(sp)
8000086c:	00000313          	li	t1,0
80000870:	f8078613          	addi	a2,a5,-128
80000874:	00040793          	mv	a5,s0
80000878:	00048413          	mv	s0,s1
8000087c:	00078493          	mv	s1,a5
80000880:	01412783          	lw	a5,20(sp)
80000884:	00078e63          	beqz	a5,800008a0 <redraw+0xd0>
80000888:	00062703          	lw	a4,0(a2)
8000088c:	00091797          	auipc	a5,0x91
80000890:	50c78793          	addi	a5,a5,1292 # 80091d98 <color_buf>
80000894:	00e7a023          	sw	a4,0(a5)
80000898:	00478793          	addi	a5,a5,4
8000089c:	fe979ce3          	bne	a5,s1,80000894 <redraw+0xc4>
800008a0:	00812783          	lw	a5,8(sp)
800008a4:	00460613          	addi	a2,a2,4
800008a8:	00612c23          	sw	t1,24(sp)
800008ac:	00f12e23          	sw	a5,28(sp)
800008b0:	00091797          	auipc	a5,0x91
800008b4:	4e878793          	addi	a5,a5,1256 # 80091d98 <color_buf>
800008b8:	02f12023          	sw	a5,32(sp)
800008bc:	01012783          	lw	a5,16(sp)
800008c0:	00830333          	add	t1,t1,s0
800008c4:	01810593          	addi	a1,sp,24
800008c8:	02f12423          	sw	a5,40(sp)
800008cc:	00b00513          	li	a0,11
800008d0:	00100793          	li	a5,1
800008d4:	00c12223          	sw	a2,4(sp)
800008d8:	02f10623          	sb	a5,44(sp)
800008dc:	00612023          	sw	t1,0(sp)
800008e0:	02812223          	sw	s0,36(sp)
800008e4:	0d9000ef          	jal	ra,800011bc <ioe_write>
800008e8:	00c12783          	lw	a5,12(sp)
800008ec:	00412603          	lw	a2,4(sp)
800008f0:	00012303          	lw	t1,0(sp)
800008f4:	f8f616e3          	bne	a2,a5,80000880 <redraw+0xb0>
800008f8:	00812703          	lw	a4,8(sp)
800008fc:	01012683          	lw	a3,16(sp)
80000900:	00048793          	mv	a5,s1
80000904:	00040493          	mv	s1,s0
80000908:	00d70733          	add	a4,a4,a3
8000090c:	00078413          	mv	s0,a5
80000910:	08060793          	addi	a5,a2,128
80000914:	00e12423          	sw	a4,8(sp)
80000918:	00f12623          	sw	a5,12(sp)
8000091c:	00091717          	auipc	a4,0x91
80000920:	4fc70713          	addi	a4,a4,1276 # 80091e18 <color_buf+0x80>
80000924:	f4e792e3          	bne	a5,a4,80000868 <redraw+0x98>
80000928:	01810593          	addi	a1,sp,24
8000092c:	00100793          	li	a5,1
80000930:	00b00513          	li	a0,11
80000934:	00012c23          	sw	zero,24(sp)
80000938:	00012e23          	sw	zero,28(sp)
8000093c:	02012023          	sw	zero,32(sp)
80000940:	02012223          	sw	zero,36(sp)
80000944:	02012423          	sw	zero,40(sp)
80000948:	02f10623          	sb	a5,44(sp)
8000094c:	071000ef          	jal	ra,800011bc <ioe_write>
80000950:	03812083          	lw	ra,56(sp)
80000954:	03412403          	lw	s0,52(sp)
80000958:	03012483          	lw	s1,48(sp)
8000095c:	03c10113          	addi	sp,sp,60
80000960:	00008067          	ret
80000964:	01600613          	li	a2,22
80000968:	00002597          	auipc	a1,0x2
8000096c:	c1058593          	addi	a1,a1,-1008 # 80002578 <tests+0x5fc>
80000970:	00002517          	auipc	a0,0x2
80000974:	c4c50513          	addi	a0,a0,-948 # 800025bc <tests+0x640>
80000978:	354010ef          	jal	ra,80001ccc <printf>
8000097c:	00100513          	li	a0,1
80000980:	71c000ef          	jal	ra,8000109c <halt>

80000984 <update>:
80000984:	00094797          	auipc	a5,0x94
80000988:	42878793          	addi	a5,a5,1064 # 80094dac <tsc.2>
8000098c:	0007a603          	lw	a2,0(a5)
80000990:	fe810113          	addi	sp,sp,-24
80000994:	00812a23          	sw	s0,20(sp)
80000998:	00160613          	addi	a2,a2,1
8000099c:	00912823          	sw	s1,16(sp)
800009a0:	00092717          	auipc	a4,0x92
800009a4:	47870713          	addi	a4,a4,1144 # 80092e18 <used+0x80>
800009a8:	00093697          	auipc	a3,0x93
800009ac:	47068693          	addi	a3,a3,1136 # 80093e18 <stack.0+0x70>
800009b0:	00c12623          	sw	a2,12(sp)
800009b4:	00c7a023          	sw	a2,0(a5)
800009b8:	f8070793          	addi	a5,a4,-128
800009bc:	0007a023          	sw	zero,0(a5)
800009c0:	00478793          	addi	a5,a5,4
800009c4:	fef71ce3          	bne	a4,a5,800009bc <update+0x38>
800009c8:	08070713          	addi	a4,a4,128
800009cc:	fed716e3          	bne	a4,a3,800009b8 <update+0x34>
800009d0:	00c12603          	lw	a2,12(sp)
800009d4:	00000593          	li	a1,0
800009d8:	00012223          	sw	zero,4(sp)
800009dc:	0ff67693          	zext.b	a3,a2
800009e0:	00169793          	slli	a5,a3,0x1
800009e4:	00f687b3          	add	a5,a3,a5
800009e8:	00369713          	slli	a4,a3,0x3
800009ec:	40d70733          	sub	a4,a4,a3
800009f0:	00179793          	slli	a5,a5,0x1
800009f4:	0ff7f793          	zext.b	a5,a5
800009f8:	0ff77713          	zext.b	a4,a4
800009fc:	00871713          	slli	a4,a4,0x8
80000a00:	01079793          	slli	a5,a5,0x10
80000a04:	00e7e7b3          	or	a5,a5,a4
80000a08:	0ff67713          	zext.b	a4,a2
80000a0c:	00e7e7b3          	or	a5,a5,a4
80000a10:	00090717          	auipc	a4,0x90
80000a14:	38870713          	addi	a4,a4,904 # 80090d98 <canvas>
80000a18:	00f72023          	sw	a5,0(a4)
80000a1c:	00100793          	li	a5,1
80000a20:	00092717          	auipc	a4,0x92
80000a24:	37870713          	addi	a4,a4,888 # 80092d98 <used>
80000a28:	00f72023          	sw	a5,0(a4)
80000a2c:	00100693          	li	a3,1
80000a30:	00000713          	li	a4,0
80000a34:	00f12423          	sw	a5,8(sp)
80000a38:	00000413          	li	s0,0
80000a3c:	00002297          	auipc	t0,0x2
80000a40:	bac28293          	addi	t0,t0,-1108 # 800025e8 <dx.1>
80000a44:	00002497          	auipc	s1,0x2
80000a48:	bb448493          	addi	s1,s1,-1100 # 800025f8 <dy.0>
80000a4c:	00400613          	li	a2,4
80000a50:	00412503          	lw	a0,4(sp)
80000a54:	00e40733          	add	a4,s0,a4
80000a58:	00571793          	slli	a5,a4,0x5
80000a5c:	00d506b3          	add	a3,a0,a3
80000a60:	00d787b3          	add	a5,a5,a3
80000a64:	00279793          	slli	a5,a5,0x2
80000a68:	00092517          	auipc	a0,0x92
80000a6c:	33050513          	addi	a0,a0,816 # 80092d98 <used>
80000a70:	00f50533          	add	a0,a0,a5
80000a74:	00a12023          	sw	a0,0(sp)
80000a78:	01f00393          	li	t2,31
80000a7c:	00d76533          	or	a0,a4,a3
80000a80:	00158313          	addi	t1,a1,1
80000a84:	fff60613          	addi	a2,a2,-1
80000a88:	00a3e863          	bltu	t2,a0,80000a98 <update+0x114>
80000a8c:	00012503          	lw	a0,0(sp)
80000a90:	00052503          	lw	a0,0(a0)
80000a94:	02050263          	beqz	a0,80000ab8 <update+0x134>
80000a98:	00337593          	andi	a1,t1,3
80000a9c:	00259793          	slli	a5,a1,0x2
80000aa0:	00f28733          	add	a4,t0,a5
80000aa4:	00f487b3          	add	a5,s1,a5
80000aa8:	06060c63          	beqz	a2,80000b20 <update+0x19c>
80000aac:	00072703          	lw	a4,0(a4)
80000ab0:	0007a683          	lw	a3,0(a5)
80000ab4:	f9dff06f          	j	80000a50 <update+0xcc>
80000ab8:	00812603          	lw	a2,8(sp)
80000abc:	00c12503          	lw	a0,12(sp)
80000ac0:	00012383          	lw	t2,0(sp)
80000ac4:	40165613          	srai	a2,a2,0x1
80000ac8:	00a60433          	add	s0,a2,a0
80000acc:	0ff47313          	zext.b	t1,s0
80000ad0:	00131513          	slli	a0,t1,0x1
80000ad4:	00a30533          	add	a0,t1,a0
80000ad8:	00331613          	slli	a2,t1,0x3
80000adc:	40660633          	sub	a2,a2,t1
80000ae0:	00151513          	slli	a0,a0,0x1
80000ae4:	0ff57513          	zext.b	a0,a0
80000ae8:	0ff67613          	zext.b	a2,a2
80000aec:	01051513          	slli	a0,a0,0x10
80000af0:	00861613          	slli	a2,a2,0x8
80000af4:	00c56633          	or	a2,a0,a2
80000af8:	00090317          	auipc	t1,0x90
80000afc:	2a030313          	addi	t1,t1,672 # 80090d98 <canvas>
80000b00:	0ff47513          	zext.b	a0,s0
80000b04:	00a66633          	or	a2,a2,a0
80000b08:	00f307b3          	add	a5,t1,a5
80000b0c:	00100513          	li	a0,1
80000b10:	00a3a023          	sw	a0,0(t2)
80000b14:	00c7a023          	sw	a2,0(a5)
80000b18:	00d12223          	sw	a3,4(sp)
80000b1c:	00070413          	mv	s0,a4
80000b20:	00812783          	lw	a5,8(sp)
80000b24:	40000713          	li	a4,1024
80000b28:	00178793          	addi	a5,a5,1
80000b2c:	00f12423          	sw	a5,8(sp)
80000b30:	00e78e63          	beq	a5,a4,80000b4c <update+0x1c8>
80000b34:	00259793          	slli	a5,a1,0x2
80000b38:	00f28733          	add	a4,t0,a5
80000b3c:	00f487b3          	add	a5,s1,a5
80000b40:	00072703          	lw	a4,0(a4)
80000b44:	0007a683          	lw	a3,0(a5)
80000b48:	f05ff06f          	j	80000a4c <update+0xc8>
80000b4c:	01412403          	lw	s0,20(sp)
80000b50:	01012483          	lw	s1,16(sp)
80000b54:	01810113          	addi	sp,sp,24
80000b58:	00008067          	ret

80000b5c <video_test>:
80000b5c:	fe010113          	addi	sp,sp,-32
80000b60:	00812c23          	sw	s0,24(sp)
80000b64:	00f10413          	addi	s0,sp,15
80000b68:	00912a23          	sw	s1,20(sp)
80000b6c:	00112e23          	sw	ra,28(sp)
80000b70:	ff847413          	andi	s0,s0,-8
80000b74:	00000493          	li	s1,0
80000b78:	00012223          	sw	zero,4(sp)
80000b7c:	00012023          	sw	zero,0(sp)
80000b80:	00040593          	mv	a1,s0
80000b84:	00600513          	li	a0,6
80000b88:	618000ef          	jal	ra,800011a0 <ioe_read>
80000b8c:	00042503          	lw	a0,0(s0)
80000b90:	00442583          	lw	a1,4(s0)
80000b94:	3e800613          	li	a2,1000
80000b98:	00000693          	li	a3,0
80000b9c:	529000ef          	jal	ra,800018c4 <__udivdi3>
80000ba0:	00012783          	lw	a5,0(sp)
80000ba4:	02100713          	li	a4,33
80000ba8:	00050593          	mv	a1,a0
80000bac:	40f507b3          	sub	a5,a0,a5
80000bb0:	02f76863          	bltu	a4,a5,80000be0 <video_test+0x84>
80000bb4:	00412783          	lw	a5,4(sp)
80000bb8:	3e800713          	li	a4,1000
80000bbc:	40f587b3          	sub	a5,a1,a5
80000bc0:	fcf770e3          	bgeu	a4,a5,80000b80 <video_test+0x24>
80000bc4:	00048613          	mv	a2,s1
80000bc8:	00002517          	auipc	a0,0x2
80000bcc:	a1050513          	addi	a0,a0,-1520 # 800025d8 <tests+0x65c>
80000bd0:	00b12223          	sw	a1,4(sp)
80000bd4:	00000493          	li	s1,0
80000bd8:	0f4010ef          	jal	ra,80001ccc <printf>
80000bdc:	fa5ff06f          	j	80000b80 <video_test+0x24>
80000be0:	00a12023          	sw	a0,0(sp)
80000be4:	da1ff0ef          	jal	ra,80000984 <update>
80000be8:	be9ff0ef          	jal	ra,800007d0 <redraw>
80000bec:	00012583          	lw	a1,0(sp)
80000bf0:	00148493          	addi	s1,s1,1
80000bf4:	fc1ff06f          	j	80000bb4 <video_test+0x58>

80000bf8 <keyboard_test>:
80000bf8:	fec10113          	addi	sp,sp,-20
80000bfc:	00002517          	auipc	a0,0x2
80000c00:	a0c50513          	addi	a0,a0,-1524 # 80002608 <dy.0+0x10>
80000c04:	00112823          	sw	ra,16(sp)
80000c08:	00912423          	sw	s1,8(sp)
80000c0c:	00812623          	sw	s0,12(sp)
80000c10:	0bc010ef          	jal	ra,80001ccc <printf>
80000c14:	00010593          	mv	a1,sp
80000c18:	00100513          	li	a0,1
80000c1c:	584000ef          	jal	ra,800011a0 <ioe_read>
80000c20:	00014783          	lbu	a5,0(sp)
80000c24:	00094717          	auipc	a4,0x94
80000c28:	18d70713          	addi	a4,a4,397 # 80094db1 <has_uart>
80000c2c:	00010593          	mv	a1,sp
80000c30:	00700513          	li	a0,7
80000c34:	00f70023          	sb	a5,0(a4)
80000c38:	568000ef          	jal	ra,800011a0 <ioe_read>
80000c3c:	00014783          	lbu	a5,0(sp)
80000c40:	00094717          	auipc	a4,0x94
80000c44:	17070713          	addi	a4,a4,368 # 80094db0 <has_kbd>
80000c48:	00002497          	auipc	s1,0x2
80000c4c:	bd048493          	addi	s1,s1,-1072 # 80002818 <names>
80000c50:	00f70023          	sb	a5,0(a4)
80000c54:	0ff00413          	li	s0,255
80000c58:	00094797          	auipc	a5,0x94
80000c5c:	15978793          	addi	a5,a5,345 # 80094db1 <has_uart>
80000c60:	0007c783          	lbu	a5,0(a5)
80000c64:	00079e63          	bnez	a5,80000c80 <keyboard_test+0x88>
80000c68:	00094797          	auipc	a5,0x94
80000c6c:	14878793          	addi	a5,a5,328 # 80094db0 <has_kbd>
80000c70:	0007c783          	lbu	a5,0(a5)
80000c74:	fe0782e3          	beqz	a5,80000c58 <keyboard_test+0x60>
80000c78:	0480006f          	j	80000cc0 <keyboard_test+0xc8>
80000c7c:	050010ef          	jal	ra,80001ccc <printf>
80000c80:	00010593          	mv	a1,sp
80000c84:	00300513          	li	a0,3
80000c88:	518000ef          	jal	ra,800011a0 <ioe_read>
80000c8c:	00014603          	lbu	a2,0(sp)
80000c90:	00002517          	auipc	a0,0x2
80000c94:	9a450513          	addi	a0,a0,-1628 # 80002634 <dy.0+0x3c>
80000c98:	00060593          	mv	a1,a2
80000c9c:	fe8610e3          	bne	a2,s0,80000c7c <keyboard_test+0x84>
80000ca0:	fc9ff06f          	j	80000c68 <keyboard_test+0x70>
80000ca4:	0007a583          	lw	a1,0(a5)
80000ca8:	00002697          	auipc	a3,0x2
80000cac:	b6868693          	addi	a3,a3,-1176 # 80002810 <dy.0+0x218>
80000cb0:	00071663          	bnez	a4,80000cbc <keyboard_test+0xc4>
80000cb4:	00002697          	auipc	a3,0x2
80000cb8:	b5468693          	addi	a3,a3,-1196 # 80002808 <dy.0+0x210>
80000cbc:	010010ef          	jal	ra,80001ccc <printf>
80000cc0:	00800513          	li	a0,8
80000cc4:	00010593          	mv	a1,sp
80000cc8:	4d8000ef          	jal	ra,800011a0 <ioe_read>
80000ccc:	00412603          	lw	a2,4(sp)
80000cd0:	00014703          	lbu	a4,0(sp)
80000cd4:	00002517          	auipc	a0,0x2
80000cd8:	97850513          	addi	a0,a0,-1672 # 8000264c <dy.0+0x54>
80000cdc:	00261793          	slli	a5,a2,0x2
80000ce0:	00f487b3          	add	a5,s1,a5
80000ce4:	fc0610e3          	bnez	a2,80000ca4 <keyboard_test+0xac>
80000ce8:	f6dff06f          	j	80000c54 <keyboard_test+0x5c>

80000cec <simple_pgalloc>:
80000cec:	00094797          	auipc	a5,0x94
80000cf0:	0c878793          	addi	a5,a5,200 # 80094db4 <st>
80000cf4:	0007a783          	lw	a5,0(a5)
80000cf8:	ff010113          	addi	sp,sp,-16
80000cfc:	00912223          	sw	s1,4(sp)
80000d00:	00112623          	sw	ra,12(sp)
80000d04:	00812423          	sw	s0,8(sp)
80000d08:	00050493          	mv	s1,a0
80000d0c:	00079663          	bnez	a5,80000d18 <simple_pgalloc+0x2c>
80000d10:	00010797          	auipc	a5,0x10
80000d14:	c787a783          	lw	a5,-904(a5) # 80010988 <heap>
80000d18:	00078513          	mv	a0,a5
80000d1c:	00048593          	mv	a1,s1
80000d20:	00f12023          	sw	a5,0(sp)
80000d24:	710000ef          	jal	ra,80001434 <__umodsi3>
80000d28:	00012783          	lw	a5,0(sp)
80000d2c:	02050063          	beqz	a0,80000d4c <simple_pgalloc+0x60>
80000d30:	00178413          	addi	s0,a5,1
80000d34:	00040513          	mv	a0,s0
80000d38:	00048593          	mv	a1,s1
80000d3c:	6f8000ef          	jal	ra,80001434 <__umodsi3>
80000d40:	00040793          	mv	a5,s0
80000d44:	00140413          	addi	s0,s0,1
80000d48:	fe0516e3          	bnez	a0,80000d34 <simple_pgalloc+0x48>
80000d4c:	00c12083          	lw	ra,12(sp)
80000d50:	00812403          	lw	s0,8(sp)
80000d54:	00f485b3          	add	a1,s1,a5
80000d58:	00094717          	auipc	a4,0x94
80000d5c:	05c70713          	addi	a4,a4,92 # 80094db4 <st>
80000d60:	00b72023          	sw	a1,0(a4)
80000d64:	00412483          	lw	s1,4(sp)
80000d68:	00078513          	mv	a0,a5
80000d6c:	01010113          	addi	sp,sp,16
80000d70:	00008067          	ret

80000d74 <simple_pgfree>:
80000d74:	00008067          	ret

80000d78 <vm_handler>:
80000d78:	00052783          	lw	a5,0(a0)
80000d7c:	ff010113          	addi	sp,sp,-16
80000d80:	00812423          	sw	s0,8(sp)
80000d84:	00112623          	sw	ra,12(sp)
80000d88:	00300713          	li	a4,3
80000d8c:	00452603          	lw	a2,4(a0)
80000d90:	00058413          	mv	s0,a1
80000d94:	0ce78263          	beq	a5,a4,80000e58 <vm_handler+0xe0>
80000d98:	08f76263          	bltu	a4,a5,80000e1c <vm_handler+0xa4>
80000d9c:	00100713          	li	a4,1
80000da0:	08e78c63          	beq	a5,a4,80000e38 <vm_handler+0xc0>
80000da4:	00200713          	li	a4,2
80000da8:	12e79463          	bne	a5,a4,80000ed0 <vm_handler+0x158>
80000dac:	00100513          	li	a0,1
80000db0:	550000ef          	jal	ra,80001300 <iset>
80000db4:	00012023          	sw	zero,0(sp)
80000db8:	00012783          	lw	a5,0(sp)
80000dbc:	000f4737          	lui	a4,0xf4
80000dc0:	23f70713          	addi	a4,a4,575 # f423f <_entry_offset+0xf423f>
80000dc4:	00f74c63          	blt	a4,a5,80000ddc <vm_handler+0x64>
80000dc8:	00012783          	lw	a5,0(sp)
80000dcc:	00178793          	addi	a5,a5,1
80000dd0:	00f12023          	sw	a5,0(sp)
80000dd4:	00012783          	lw	a5,0(sp)
80000dd8:	fef758e3          	bge	a4,a5,80000dc8 <vm_handler+0x50>
80000ddc:	00042583          	lw	a1,0(s0)
80000de0:	00002517          	auipc	a0,0x2
80000de4:	bcc50513          	addi	a0,a0,-1076 # 800029ac <names+0x194>
80000de8:	6e5000ef          	jal	ra,80001ccc <printf>
80000dec:	00010797          	auipc	a5,0x10
80000df0:	b987a783          	lw	a5,-1128(a5) # 80010984 <first_trap>
80000df4:	00078a63          	beqz	a5,80000e08 <vm_handler+0x90>
80000df8:	00010797          	auipc	a5,0x10
80000dfc:	b807a623          	sw	zero,-1140(a5) # 80010984 <first_trap>
80000e00:	00094417          	auipc	s0,0x94
80000e04:	fb842403          	lw	s0,-72(s0) # 80094db8 <uctx>
80000e08:	00c12083          	lw	ra,12(sp)
80000e0c:	00040513          	mv	a0,s0
80000e10:	00812403          	lw	s0,8(sp)
80000e14:	01010113          	addi	sp,sp,16
80000e18:	00008067          	ret
80000e1c:	ffb78793          	addi	a5,a5,-5
80000e20:	00100713          	li	a4,1
80000e24:	0af76663          	bltu	a4,a5,80000ed0 <vm_handler+0x158>
80000e28:	00c52583          	lw	a1,12(a0)
80000e2c:	00002517          	auipc	a0,0x2
80000e30:	b5450513          	addi	a0,a0,-1196 # 80002980 <names+0x168>
80000e34:	699000ef          	jal	ra,80001ccc <printf>
80000e38:	00010797          	auipc	a5,0x10
80000e3c:	b4c7a783          	lw	a5,-1204(a5) # 80010984 <first_trap>
80000e40:	fc0784e3          	beqz	a5,80000e08 <vm_handler+0x90>
80000e44:	00010797          	auipc	a5,0x10
80000e48:	b407a023          	sw	zero,-1216(a5) # 80010984 <first_trap>
80000e4c:	00094417          	auipc	s0,0x94
80000e50:	f6c42403          	lw	s0,-148(s0) # 80094db8 <uctx>
80000e54:	fb5ff06f          	j	80000e08 <vm_handler+0x90>
80000e58:	00167793          	andi	a5,a2,1
80000e5c:	00852583          	lw	a1,8(a0)
80000e60:	00002697          	auipc	a3,0x2
80000e64:	b0468693          	addi	a3,a3,-1276 # 80002964 <names+0x14c>
80000e68:	04078663          	beqz	a5,80000eb4 <vm_handler+0x13c>
80000e6c:	00267613          	andi	a2,a2,2
80000e70:	00002717          	auipc	a4,0x2
80000e74:	b0070713          	addi	a4,a4,-1280 # 80002970 <names+0x158>
80000e78:	00060e63          	beqz	a2,80000e94 <vm_handler+0x11c>
80000e7c:	00001617          	auipc	a2,0x1
80000e80:	6b860613          	addi	a2,a2,1720 # 80002534 <tests+0x5b8>
80000e84:	00002517          	auipc	a0,0x2
80000e88:	b1850513          	addi	a0,a0,-1256 # 8000299c <names+0x184>
80000e8c:	641000ef          	jal	ra,80001ccc <printf>
80000e90:	fa9ff06f          	j	80000e38 <vm_handler+0xc0>
80000e94:	00001717          	auipc	a4,0x1
80000e98:	6a070713          	addi	a4,a4,1696 # 80002534 <tests+0x5b8>
80000e9c:	00001617          	auipc	a2,0x1
80000ea0:	69860613          	addi	a2,a2,1688 # 80002534 <tests+0x5b8>
80000ea4:	00002517          	auipc	a0,0x2
80000ea8:	af850513          	addi	a0,a0,-1288 # 8000299c <names+0x184>
80000eac:	621000ef          	jal	ra,80001ccc <printf>
80000eb0:	f89ff06f          	j	80000e38 <vm_handler+0xc0>
80000eb4:	00267613          	andi	a2,a2,2
80000eb8:	00001697          	auipc	a3,0x1
80000ebc:	67c68693          	addi	a3,a3,1660 # 80002534 <tests+0x5b8>
80000ec0:	00002717          	auipc	a4,0x2
80000ec4:	ab070713          	addi	a4,a4,-1360 # 80002970 <names+0x158>
80000ec8:	fa061ae3          	bnez	a2,80000e7c <vm_handler+0x104>
80000ecc:	fc9ff06f          	j	80000e94 <vm_handler+0x11c>
80000ed0:	02800613          	li	a2,40
80000ed4:	00002597          	auipc	a1,0x2
80000ed8:	adc58593          	addi	a1,a1,-1316 # 800029b0 <names+0x198>
80000edc:	00001517          	auipc	a0,0x1
80000ee0:	6e050513          	addi	a0,a0,1760 # 800025bc <tests+0x640>
80000ee4:	5e9000ef          	jal	ra,80001ccc <printf>
80000ee8:	00100513          	li	a0,1
80000eec:	1b0000ef          	jal	ra,8000109c <halt>

80000ef0 <vm_test>:
80000ef0:	fe810113          	addi	sp,sp,-24
80000ef4:	00300613          	li	a2,3
80000ef8:	00002597          	auipc	a1,0x2
80000efc:	af858593          	addi	a1,a1,-1288 # 800029f0 <names+0x1d8>
80000f00:	00002517          	auipc	a0,0x2
80000f04:	af450513          	addi	a0,a0,-1292 # 800029f4 <names+0x1dc>
80000f08:	00112a23          	sw	ra,20(sp)
80000f0c:	00812823          	sw	s0,16(sp)
80000f10:	00912623          	sw	s1,12(sp)
80000f14:	6d1000ef          	jal	ra,80001de4 <strncmp>
80000f18:	00050e63          	beqz	a0,80000f34 <vm_test+0x44>
80000f1c:	00002597          	auipc	a1,0x2
80000f20:	ae458593          	addi	a1,a1,-1308 # 80002a00 <names+0x1e8>
80000f24:	00002517          	auipc	a0,0x2
80000f28:	ad050513          	addi	a0,a0,-1328 # 800029f4 <names+0x1dc>
80000f2c:	675000ef          	jal	ra,80001da0 <strcmp>
80000f30:	10051e63          	bnez	a0,8000104c <vm_test+0x15c>
80000f34:	00093417          	auipc	s0,0x93
80000f38:	e6440413          	addi	s0,s0,-412 # 80093d98 <prot>
80000f3c:	00040513          	mv	a0,s0
80000f40:	47c000ef          	jal	ra,800013bc <protect>
80000f44:	00842603          	lw	a2,8(s0)
80000f48:	00442583          	lw	a1,4(s0)
80000f4c:	00002517          	auipc	a0,0x2
80000f50:	adc50513          	addi	a0,a0,-1316 # 80002a28 <names+0x210>
80000f54:	579000ef          	jal	ra,80001ccc <printf>
80000f58:	00442683          	lw	a3,4(s0)
80000f5c:	00842703          	lw	a4,8(s0)
80000f60:	00094797          	auipc	a5,0x94
80000f64:	e5478793          	addi	a5,a5,-428 # 80094db4 <st>
80000f68:	0007a483          	lw	s1,0(a5)
80000f6c:	40d707b3          	sub	a5,a4,a3
80000f70:	0017d793          	srli	a5,a5,0x1
80000f74:	00d787b3          	add	a5,a5,a3
80000f78:	00f12023          	sw	a5,0(sp)
80000f7c:	00042403          	lw	s0,0(s0)
80000f80:	02049063          	bnez	s1,80000fa0 <vm_test+0xb0>
80000f84:	00010497          	auipc	s1,0x10
80000f88:	a044a483          	lw	s1,-1532(s1) # 80010988 <heap>
80000f8c:	00040593          	mv	a1,s0
80000f90:	00048513          	mv	a0,s1
80000f94:	4a0000ef          	jal	ra,80001434 <__umodsi3>
80000f98:	00050c63          	beqz	a0,80000fb0 <vm_test+0xc0>
80000f9c:	00148493          	addi	s1,s1,1
80000fa0:	00040593          	mv	a1,s0
80000fa4:	00048513          	mv	a0,s1
80000fa8:	48c000ef          	jal	ra,80001434 <__umodsi3>
80000fac:	fe0518e3          	bnez	a0,80000f9c <vm_test+0xac>
80000fb0:	00940733          	add	a4,s0,s1
80000fb4:	00094797          	auipc	a5,0x94
80000fb8:	e0078793          	addi	a5,a5,-512 # 80094db4 <st>
80000fbc:	00f00613          	li	a2,15
80000fc0:	00010597          	auipc	a1,0x10
80000fc4:	9b458593          	addi	a1,a1,-1612 # 80010974 <code>
80000fc8:	00048513          	mv	a0,s1
80000fcc:	00e7a023          	sw	a4,0(a5)
80000fd0:	64d000ef          	jal	ra,80001e1c <memcpy>
80000fd4:	00012403          	lw	s0,0(sp)
80000fd8:	00300693          	li	a3,3
80000fdc:	00048613          	mv	a2,s1
80000fe0:	00040593          	mv	a1,s0
80000fe4:	00093517          	auipc	a0,0x93
80000fe8:	db450513          	addi	a0,a0,-588 # 80093d98 <prot>
80000fec:	3d4000ef          	jal	ra,800013c0 <map>
80000ff0:	00048613          	mv	a2,s1
80000ff4:	00040593          	mv	a1,s0
80000ff8:	00002517          	auipc	a0,0x2
80000ffc:	a5450513          	addi	a0,a0,-1452 # 80002a4c <names+0x234>
80001000:	4cd000ef          	jal	ra,80001ccc <printf>
80001004:	00040693          	mv	a3,s0
80001008:	00093597          	auipc	a1,0x93
8000100c:	da058593          	addi	a1,a1,-608 # 80093da8 <stack.0>
80001010:	00094617          	auipc	a2,0x94
80001014:	d9860613          	addi	a2,a2,-616 # 80094da8 <entry>
80001018:	00093517          	auipc	a0,0x93
8000101c:	d8050513          	addi	a0,a0,-640 # 80093d98 <prot>
80001020:	3a4000ef          	jal	ra,800013c4 <ucontext>
80001024:	00050793          	mv	a5,a0
80001028:	00100513          	li	a0,1
8000102c:	00094717          	auipc	a4,0x94
80001030:	d8f72623          	sw	a5,-628(a4) # 80094db8 <uctx>
80001034:	2cc000ef          	jal	ra,80001300 <iset>
80001038:	01012403          	lw	s0,16(sp)
8000103c:	01412083          	lw	ra,20(sp)
80001040:	00c12483          	lw	s1,12(sp)
80001044:	01810113          	addi	sp,sp,24
80001048:	2ac0006f          	j	800012f4 <yield>
8000104c:	01012403          	lw	s0,16(sp)
80001050:	01412083          	lw	ra,20(sp)
80001054:	00c12483          	lw	s1,12(sp)
80001058:	00002517          	auipc	a0,0x2
8000105c:	9b050513          	addi	a0,a0,-1616 # 80002a08 <names+0x1f0>
80001060:	01810113          	addi	sp,sp,24
80001064:	4690006f          	j	80001ccc <printf>

80001068 <mp_print>:
80001068:	ff410113          	addi	sp,sp,-12
8000106c:	00812223          	sw	s0,4(sp)
80001070:	00112423          	sw	ra,8(sp)
80001074:	00002417          	auipc	s0,0x2
80001078:	a0440413          	addi	s0,s0,-1532 # 80002a78 <names+0x260>
8000107c:	360000ef          	jal	ra,800013dc <cpu_current>
80001080:	00050593          	mv	a1,a0
80001084:	00040513          	mv	a0,s0
80001088:	445000ef          	jal	ra,80001ccc <printf>
8000108c:	ff1ff06f          	j	8000107c <mp_print+0x14>

80001090 <putch>:
80001090:	a00007b7          	lui	a5,0xa0000
80001094:	3ea78c23          	sb	a0,1016(a5) # a00003f8 <_end+0x1ff633f8>
80001098:	00008067          	ret

8000109c <halt>:
8000109c:	00100073          	ebreak
800010a0:	0000006f          	j	800010a0 <halt+0x4>

800010a4 <_trm_init>:
800010a4:	ff410113          	addi	sp,sp,-12
800010a8:	00002517          	auipc	a0,0x2
800010ac:	9d450513          	addi	a0,a0,-1580 # 80002a7c <mainargs>
800010b0:	00112423          	sw	ra,8(sp)
800010b4:	f5dfe0ef          	jal	ra,80000010 <main>
800010b8:	00100073          	ebreak
800010bc:	0000006f          	j	800010bc <_trm_init+0x18>

800010c0 <__am_timer_config>:
800010c0:	00100793          	li	a5,1
800010c4:	00f50023          	sb	a5,0(a0)
800010c8:	00f500a3          	sb	a5,1(a0)
800010cc:	00008067          	ret

800010d0 <__am_input_config>:
800010d0:	00100793          	li	a5,1
800010d4:	00f50023          	sb	a5,0(a0)
800010d8:	00008067          	ret

800010dc <__am_uart_config>:
800010dc:	00050023          	sb	zero,0(a0)
800010e0:	00008067          	ret

800010e4 <fail>:
800010e4:	ff410113          	addi	sp,sp,-12
800010e8:	00812223          	sw	s0,4(sp)
800010ec:	00112423          	sw	ra,8(sp)
800010f0:	00001417          	auipc	s0,0x1
800010f4:	3e040413          	addi	s0,s0,992 # 800024d0 <tests+0x554>
800010f8:	04100513          	li	a0,65
800010fc:	00140413          	addi	s0,s0,1
80001100:	f91ff0ef          	jal	ra,80001090 <putch>
80001104:	00044503          	lbu	a0,0(s0)
80001108:	fe051ae3          	bnez	a0,800010fc <fail+0x18>
8000110c:	00002417          	auipc	s0,0x2
80001110:	9b040413          	addi	s0,s0,-1616 # 80002abc <mainargs+0x40>
80001114:	06100513          	li	a0,97
80001118:	00140413          	addi	s0,s0,1
8000111c:	f75ff0ef          	jal	ra,80001090 <putch>
80001120:	00044503          	lbu	a0,0(s0)
80001124:	fe051ae3          	bnez	a0,80001118 <fail+0x34>
80001128:	00002417          	auipc	s0,0x2
8000112c:	9b040413          	addi	s0,s0,-1616 # 80002ad8 <mainargs+0x5c>
80001130:	02000513          	li	a0,32
80001134:	00140413          	addi	s0,s0,1
80001138:	f59ff0ef          	jal	ra,80001090 <putch>
8000113c:	00044503          	lbu	a0,0(s0)
80001140:	fe051ae3          	bnez	a0,80001134 <fail+0x50>
80001144:	00100513          	li	a0,1
80001148:	f55ff0ef          	jal	ra,8000109c <halt>

8000114c <ioe_init>:
8000114c:	ff410113          	addi	sp,sp,-12
80001150:	00112423          	sw	ra,8(sp)
80001154:	00010797          	auipc	a5,0x10
80001158:	83c78793          	addi	a5,a5,-1988 # 80010990 <lut>
8000115c:	00010697          	auipc	a3,0x10
80001160:	a3468693          	addi	a3,a3,-1484 # 80010b90 <next>
80001164:	00000617          	auipc	a2,0x0
80001168:	f8060613          	addi	a2,a2,-128 # 800010e4 <fail>
8000116c:	00c0006f          	j	80001178 <ioe_init+0x2c>
80001170:	00478793          	addi	a5,a5,4
80001174:	00d78c63          	beq	a5,a3,8000118c <ioe_init+0x40>
80001178:	0007a703          	lw	a4,0(a5)
8000117c:	fe071ae3          	bnez	a4,80001170 <ioe_init+0x24>
80001180:	00c7a023          	sw	a2,0(a5)
80001184:	00478793          	addi	a5,a5,4
80001188:	fed798e3          	bne	a5,a3,80001178 <ioe_init+0x2c>
8000118c:	04c000ef          	jal	ra,800011d8 <__am_timer_init>
80001190:	00812083          	lw	ra,8(sp)
80001194:	00100513          	li	a0,1
80001198:	00c10113          	addi	sp,sp,12
8000119c:	00008067          	ret

800011a0 <ioe_read>:
800011a0:	00251513          	slli	a0,a0,0x2
800011a4:	0000f797          	auipc	a5,0xf
800011a8:	7ec78793          	addi	a5,a5,2028 # 80010990 <lut>
800011ac:	00a787b3          	add	a5,a5,a0
800011b0:	0007a783          	lw	a5,0(a5)
800011b4:	00058513          	mv	a0,a1
800011b8:	00078067          	jr	a5

800011bc <ioe_write>:
800011bc:	00251513          	slli	a0,a0,0x2
800011c0:	0000f797          	auipc	a5,0xf
800011c4:	7d078793          	addi	a5,a5,2000 # 80010990 <lut>
800011c8:	00a787b3          	add	a5,a5,a0
800011cc:	0007a783          	lw	a5,0(a5)
800011d0:	00058513          	mv	a0,a1
800011d4:	00078067          	jr	a5

800011d8 <__am_timer_init>:
800011d8:	a00007b7          	lui	a5,0xa0000
800011dc:	04c7a683          	lw	a3,76(a5) # a000004c <_end+0x1ff6304c>
800011e0:	0487a603          	lw	a2,72(a5)
800011e4:	04c7a703          	lw	a4,76(a5)
800011e8:	fed71ae3          	bne	a4,a3,800011dc <__am_timer_init+0x4>
800011ec:	00094797          	auipc	a5,0x94
800011f0:	bd478793          	addi	a5,a5,-1068 # 80094dc0 <start_time>
800011f4:	00c7a023          	sw	a2,0(a5)
800011f8:	00e7a223          	sw	a4,4(a5)
800011fc:	00008067          	ret

80001200 <__am_timer_uptime>:
80001200:	a00007b7          	lui	a5,0xa0000
80001204:	04c7a683          	lw	a3,76(a5) # a000004c <_end+0x1ff6304c>
80001208:	0487a603          	lw	a2,72(a5)
8000120c:	04c7a703          	lw	a4,76(a5)
80001210:	fed71ae3          	bne	a4,a3,80001204 <__am_timer_uptime+0x4>
80001214:	00094697          	auipc	a3,0x94
80001218:	bac68693          	addi	a3,a3,-1108 # 80094dc0 <start_time>
8000121c:	0006a783          	lw	a5,0(a3)
80001220:	0046a683          	lw	a3,4(a3)
80001224:	40f607b3          	sub	a5,a2,a5
80001228:	00f63633          	sltu	a2,a2,a5
8000122c:	40d70733          	sub	a4,a4,a3
80001230:	40c70733          	sub	a4,a4,a2
80001234:	00f52023          	sw	a5,0(a0)
80001238:	00e52223          	sw	a4,4(a0)
8000123c:	00008067          	ret

80001240 <__am_timer_rtc>:
80001240:	76c00793          	li	a5,1900
80001244:	00052a23          	sw	zero,20(a0)
80001248:	00052823          	sw	zero,16(a0)
8000124c:	00052623          	sw	zero,12(a0)
80001250:	00052423          	sw	zero,8(a0)
80001254:	00052223          	sw	zero,4(a0)
80001258:	00f52023          	sw	a5,0(a0)
8000125c:	00008067          	ret

80001260 <__am_input_keybrd>:
80001260:	00050023          	sb	zero,0(a0)
80001264:	00052223          	sw	zero,4(a0)
80001268:	00008067          	ret

8000126c <__am_irq_handle>:
8000126c:	00094797          	auipc	a5,0x94
80001270:	b5c7a783          	lw	a5,-1188(a5) # 80094dc8 <user_handler>
80001274:	00050593          	mv	a1,a0
80001278:	02078c63          	beqz	a5,800012b0 <__am_irq_handle+0x44>
8000127c:	fd410113          	addi	sp,sp,-44
80001280:	00400713          	li	a4,4
80001284:	02112423          	sw	ra,40(sp)
80001288:	00e12023          	sw	a4,0(sp)
8000128c:	00012223          	sw	zero,4(sp)
80001290:	00012423          	sw	zero,8(sp)
80001294:	00012623          	sw	zero,12(sp)
80001298:	00010513          	mv	a0,sp
8000129c:	000780e7          	jalr	a5
800012a0:	00050a63          	beqz	a0,800012b4 <__am_irq_handle+0x48>
800012a4:	02812083          	lw	ra,40(sp)
800012a8:	02c10113          	addi	sp,sp,44
800012ac:	00008067          	ret
800012b0:	00008067          	ret
800012b4:	00f00613          	li	a2,15
800012b8:	00002597          	auipc	a1,0x2
800012bc:	86858593          	addi	a1,a1,-1944 # 80002b20 <mainargs+0xa4>
800012c0:	00001517          	auipc	a0,0x1
800012c4:	2fc50513          	addi	a0,a0,764 # 800025bc <tests+0x640>
800012c8:	205000ef          	jal	ra,80001ccc <printf>
800012cc:	00100513          	li	a0,1
800012d0:	dcdff0ef          	jal	ra,8000109c <halt>

800012d4 <cte_init>:
800012d4:	00050793          	mv	a5,a0
800012d8:	00000717          	auipc	a4,0x0
800012dc:	03070713          	addi	a4,a4,48 # 80001308 <__am_asm_trap>
800012e0:	30571073          	.4byte	0x30571073
800012e4:	00100513          	li	a0,1
800012e8:	00094717          	auipc	a4,0x94
800012ec:	aef72023          	sw	a5,-1312(a4) # 80094dc8 <user_handler>
800012f0:	00008067          	ret

800012f4 <yield>:
800012f4:	fff00793          	li	a5,-1
800012f8:	00000073          	ecall
800012fc:	00008067          	ret

80001300 <iset>:
80001300:	00008067          	ret
80001304:	0000                	.2byte	0x0
	...

80001308 <__am_asm_trap>:
80001308:	fb010113          	addi	sp,sp,-80
8000130c:	00112223          	sw	ra,4(sp)
80001310:	00312623          	sw	gp,12(sp)
80001314:	00412823          	sw	tp,16(sp)
80001318:	00512a23          	sw	t0,20(sp)
8000131c:	00612c23          	sw	t1,24(sp)
80001320:	00712e23          	sw	t2,28(sp)
80001324:	02812023          	sw	s0,32(sp)
80001328:	02912223          	sw	s1,36(sp)
8000132c:	02a12423          	sw	a0,40(sp)
80001330:	02b12623          	sw	a1,44(sp)
80001334:	02c12823          	sw	a2,48(sp)
80001338:	02d12a23          	sw	a3,52(sp)
8000133c:	02e12c23          	sw	a4,56(sp)
80001340:	02f12e23          	sw	a5,60(sp)
80001344:	342022f3          	.4byte	0x342022f3
80001348:	30002373          	.4byte	0x30002373
8000134c:	341023f3          	.4byte	0x341023f3
80001350:	04512023          	sw	t0,64(sp)
80001354:	04612223          	sw	t1,68(sp)
80001358:	04712423          	sw	t2,72(sp)
8000135c:	00010513          	mv	a0,sp
80001360:	f0dff0ef          	jal	ra,8000126c <__am_irq_handle>
80001364:	04412303          	lw	t1,68(sp)
80001368:	04812383          	lw	t2,72(sp)
8000136c:	30031073          	.4byte	0x30031073
80001370:	34139073          	.4byte	0x34139073
80001374:	00412083          	lw	ra,4(sp)
80001378:	00c12183          	lw	gp,12(sp)
8000137c:	01012203          	lw	tp,16(sp)
80001380:	01412283          	lw	t0,20(sp)
80001384:	01812303          	lw	t1,24(sp)
80001388:	01c12383          	lw	t2,28(sp)
8000138c:	02012403          	lw	s0,32(sp)
80001390:	02412483          	lw	s1,36(sp)
80001394:	02812503          	lw	a0,40(sp)
80001398:	02c12583          	lw	a1,44(sp)
8000139c:	03012603          	lw	a2,48(sp)
800013a0:	03412683          	lw	a3,52(sp)
800013a4:	03812703          	lw	a4,56(sp)
800013a8:	03c12783          	lw	a5,60(sp)
800013ac:	05010113          	addi	sp,sp,80
800013b0:	30200073          	mret

800013b4 <vme_init>:
800013b4:	00000513          	li	a0,0
800013b8:	00008067          	ret

800013bc <protect>:
800013bc:	00008067          	ret

800013c0 <map>:
800013c0:	00008067          	ret

800013c4 <ucontext>:
800013c4:	ff810113          	addi	sp,sp,-8
800013c8:	00000513          	li	a0,0
800013cc:	00810113          	addi	sp,sp,8
800013d0:	00008067          	ret

800013d4 <mpe_init>:
800013d4:	00000513          	li	a0,0
800013d8:	00008067          	ret

800013dc <cpu_current>:
800013dc:	00000513          	li	a0,0
800013e0:	00008067          	ret

800013e4 <__divsi3>:
800013e4:	06054063          	bltz	a0,80001444 <__umodsi3+0x10>
800013e8:	0605c663          	bltz	a1,80001454 <__umodsi3+0x20>

800013ec <__hidden___udivsi3>:
800013ec:	00058613          	mv	a2,a1
800013f0:	00050593          	mv	a1,a0
800013f4:	fff00513          	li	a0,-1
800013f8:	02060c63          	beqz	a2,80001430 <__hidden___udivsi3+0x44>
800013fc:	00100693          	li	a3,1
80001400:	00b67a63          	bgeu	a2,a1,80001414 <__hidden___udivsi3+0x28>
80001404:	00c05863          	blez	a2,80001414 <__hidden___udivsi3+0x28>
80001408:	00161613          	slli	a2,a2,0x1
8000140c:	00169693          	slli	a3,a3,0x1
80001410:	feb66ae3          	bltu	a2,a1,80001404 <__hidden___udivsi3+0x18>
80001414:	00000513          	li	a0,0
80001418:	00c5e663          	bltu	a1,a2,80001424 <__hidden___udivsi3+0x38>
8000141c:	40c585b3          	sub	a1,a1,a2
80001420:	00d56533          	or	a0,a0,a3
80001424:	0016d693          	srli	a3,a3,0x1
80001428:	00165613          	srli	a2,a2,0x1
8000142c:	fe0696e3          	bnez	a3,80001418 <__hidden___udivsi3+0x2c>
80001430:	00008067          	ret

80001434 <__umodsi3>:
80001434:	00008293          	mv	t0,ra
80001438:	fb5ff0ef          	jal	ra,800013ec <__hidden___udivsi3>
8000143c:	00058513          	mv	a0,a1
80001440:	00028067          	jr	t0
80001444:	40a00533          	neg	a0,a0
80001448:	00b04863          	bgtz	a1,80001458 <__umodsi3+0x24>
8000144c:	40b005b3          	neg	a1,a1
80001450:	f9dff06f          	j	800013ec <__hidden___udivsi3>
80001454:	40b005b3          	neg	a1,a1
80001458:	00008293          	mv	t0,ra
8000145c:	f91ff0ef          	jal	ra,800013ec <__hidden___udivsi3>
80001460:	40a00533          	neg	a0,a0
80001464:	00028067          	jr	t0

80001468 <__modsi3>:
80001468:	00008293          	mv	t0,ra
8000146c:	0005ca63          	bltz	a1,80001480 <__modsi3+0x18>
80001470:	00054c63          	bltz	a0,80001488 <__modsi3+0x20>
80001474:	f79ff0ef          	jal	ra,800013ec <__hidden___udivsi3>
80001478:	00058513          	mv	a0,a1
8000147c:	00028067          	jr	t0
80001480:	40b005b3          	neg	a1,a1
80001484:	fe0558e3          	bgez	a0,80001474 <__modsi3+0xc>
80001488:	40a00533          	neg	a0,a0
8000148c:	f61ff0ef          	jal	ra,800013ec <__hidden___udivsi3>
80001490:	40b00533          	neg	a0,a1
80001494:	00028067          	jr	t0

80001498 <__mulsi3>:
80001498:	00050613          	mv	a2,a0
8000149c:	00000513          	li	a0,0
800014a0:	0015f693          	andi	a3,a1,1
800014a4:	00068463          	beqz	a3,800014ac <__mulsi3+0x14>
800014a8:	00c50533          	add	a0,a0,a2
800014ac:	0015d593          	srli	a1,a1,0x1
800014b0:	00161613          	slli	a2,a2,0x1
800014b4:	fe0596e3          	bnez	a1,800014a0 <__mulsi3+0x8>
800014b8:	00008067          	ret

800014bc <__udivmoddi4>:
800014bc:	fe010113          	addi	sp,sp,-32
800014c0:	00912a23          	sw	s1,20(sp)
800014c4:	00112e23          	sw	ra,28(sp)
800014c8:	00812c23          	sw	s0,24(sp)
800014cc:	00e12223          	sw	a4,4(sp)
800014d0:	00050313          	mv	t1,a0
800014d4:	00060493          	mv	s1,a2
800014d8:	04059663          	bnez	a1,80001524 <__udivmoddi4+0x68>
800014dc:	20069463          	bnez	a3,800016e4 <__udivmoddi4+0x228>
800014e0:	00070413          	mv	s0,a4
800014e4:	00070e63          	beqz	a4,80001500 <__udivmoddi4+0x44>
800014e8:	00048593          	mv	a1,s1
800014ec:	00a12023          	sw	a0,0(sp)
800014f0:	f45ff0ef          	jal	ra,80001434 <__umodsi3>
800014f4:	00012303          	lw	t1,0(sp)
800014f8:	00a42023          	sw	a0,0(s0)
800014fc:	00042223          	sw	zero,4(s0)
80001500:	00048593          	mv	a1,s1
80001504:	00030513          	mv	a0,t1
80001508:	ee5ff0ef          	jal	ra,800013ec <__hidden___udivsi3>
8000150c:	00000593          	li	a1,0
80001510:	01c12083          	lw	ra,28(sp)
80001514:	01812403          	lw	s0,24(sp)
80001518:	01412483          	lw	s1,20(sp)
8000151c:	02010113          	addi	sp,sp,32
80001520:	00008067          	ret
80001524:	00058793          	mv	a5,a1
80001528:	08061263          	bnez	a2,800015ac <__udivmoddi4+0xf0>
8000152c:	24068263          	beqz	a3,80001770 <__udivmoddi4+0x2b4>
80001530:	2c050a63          	beqz	a0,80001804 <__udivmoddi4+0x348>
80001534:	fff68613          	addi	a2,a3,-1
80001538:	00d675b3          	and	a1,a2,a3
8000153c:	32058463          	beqz	a1,80001864 <__udivmoddi4+0x3a8>
80001540:	00a12623          	sw	a0,12(sp)
80001544:	00068513          	mv	a0,a3
80001548:	00f12823          	sw	a5,16(sp)
8000154c:	00f12023          	sw	a5,0(sp)
80001550:	00d12423          	sw	a3,8(sp)
80001554:	378000ef          	jal	ra,800018cc <__clzsi2>
80001558:	00012703          	lw	a4,0(sp)
8000155c:	00050413          	mv	s0,a0
80001560:	00070513          	mv	a0,a4
80001564:	368000ef          	jal	ra,800018cc <__clzsi2>
80001568:	40a40533          	sub	a0,s0,a0
8000156c:	01e00613          	li	a2,30
80001570:	00012703          	lw	a4,0(sp)
80001574:	00812683          	lw	a3,8(sp)
80001578:	00c12303          	lw	t1,12(sp)
8000157c:	01012783          	lw	a5,16(sp)
80001580:	1ea66a63          	bltu	a2,a0,80001774 <__udivmoddi4+0x2b8>
80001584:	00150393          	addi	t2,a0,1
80001588:	02000613          	li	a2,32
8000158c:	40760633          	sub	a2,a2,t2
80001590:	00c712b3          	sll	t0,a4,a2
80001594:	007355b3          	srl	a1,t1,t2
80001598:	007757b3          	srl	a5,a4,t2
8000159c:	00c31533          	sll	a0,t1,a2
800015a0:	00b2e733          	or	a4,t0,a1
800015a4:	00000413          	li	s0,0
800015a8:	0780006f          	j	80001620 <__udivmoddi4+0x164>
800015ac:	16068263          	beqz	a3,80001710 <__udivmoddi4+0x254>
800015b0:	00a12423          	sw	a0,8(sp)
800015b4:	00068513          	mv	a0,a3
800015b8:	00b12623          	sw	a1,12(sp)
800015bc:	00b12023          	sw	a1,0(sp)
800015c0:	00d12823          	sw	a3,16(sp)
800015c4:	308000ef          	jal	ra,800018cc <__clzsi2>
800015c8:	00012703          	lw	a4,0(sp)
800015cc:	00050413          	mv	s0,a0
800015d0:	00070513          	mv	a0,a4
800015d4:	2f8000ef          	jal	ra,800018cc <__clzsi2>
800015d8:	40a40533          	sub	a0,s0,a0
800015dc:	01f00613          	li	a2,31
800015e0:	00812303          	lw	t1,8(sp)
800015e4:	00c12783          	lw	a5,12(sp)
800015e8:	18a66663          	bltu	a2,a0,80001774 <__udivmoddi4+0x2b8>
800015ec:	00150393          	addi	t2,a0,1
800015f0:	02000793          	li	a5,32
800015f4:	00012703          	lw	a4,0(sp)
800015f8:	01012683          	lw	a3,16(sp)
800015fc:	00030513          	mv	a0,t1
80001600:	28f38a63          	beq	t2,a5,80001894 <__udivmoddi4+0x3d8>
80001604:	40778633          	sub	a2,a5,t2
80001608:	007355b3          	srl	a1,t1,t2
8000160c:	00c71333          	sll	t1,a4,a2
80001610:	007757b3          	srl	a5,a4,t2
80001614:	00c51533          	sll	a0,a0,a2
80001618:	00b36733          	or	a4,t1,a1
8000161c:	00000413          	li	s0,0
80001620:	00068613          	mv	a2,a3
80001624:	00012023          	sw	zero,0(sp)
80001628:	00078693          	mv	a3,a5
8000162c:	00060793          	mv	a5,a2
80001630:	01f55593          	srli	a1,a0,0x1f
80001634:	00171613          	slli	a2,a4,0x1
80001638:	00b66633          	or	a2,a2,a1
8000163c:	01f75713          	srli	a4,a4,0x1f
80001640:	00169693          	slli	a3,a3,0x1
80001644:	00e6e6b3          	or	a3,a3,a4
80001648:	40c48733          	sub	a4,s1,a2
8000164c:	00e4b333          	sltu	t1,s1,a4
80001650:	40d785b3          	sub	a1,a5,a3
80001654:	406585b3          	sub	a1,a1,t1
80001658:	00173713          	seqz	a4,a4
8000165c:	40e585b3          	sub	a1,a1,a4
80001660:	41f5d313          	srai	t1,a1,0x1f
80001664:	00937733          	and	a4,t1,s1
80001668:	00f37333          	and	t1,t1,a5
8000166c:	406686b3          	sub	a3,a3,t1
80001670:	00012303          	lw	t1,0(sp)
80001674:	40e60733          	sub	a4,a2,a4
80001678:	01f5d593          	srli	a1,a1,0x1f
8000167c:	01f45293          	srli	t0,s0,0x1f
80001680:	00151513          	slli	a0,a0,0x1
80001684:	00141413          	slli	s0,s0,0x1
80001688:	00e63633          	sltu	a2,a2,a4
8000168c:	fff38393          	addi	t2,t2,-1
80001690:	00b12023          	sw	a1,0(sp)
80001694:	00646433          	or	s0,s0,t1
80001698:	00556533          	or	a0,a0,t0
8000169c:	40c686b3          	sub	a3,a3,a2
800016a0:	f80398e3          	bnez	t2,80001630 <__udivmoddi4+0x174>
800016a4:	01f45593          	srli	a1,s0,0x1f
800016a8:	00068793          	mv	a5,a3
800016ac:	00151693          	slli	a3,a0,0x1
800016b0:	00012603          	lw	a2,0(sp)
800016b4:	00d5e5b3          	or	a1,a1,a3
800016b8:	00412683          	lw	a3,4(sp)
800016bc:	00141413          	slli	s0,s0,0x1
800016c0:	00c46533          	or	a0,s0,a2
800016c4:	e40686e3          	beqz	a3,80001510 <__udivmoddi4+0x54>
800016c8:	01c12083          	lw	ra,28(sp)
800016cc:	01812403          	lw	s0,24(sp)
800016d0:	00e6a023          	sw	a4,0(a3)
800016d4:	00f6a223          	sw	a5,4(a3)
800016d8:	01412483          	lw	s1,20(sp)
800016dc:	02010113          	addi	sp,sp,32
800016e0:	00008067          	ret
800016e4:	00412783          	lw	a5,4(sp)
800016e8:	08078a63          	beqz	a5,8000177c <__udivmoddi4+0x2c0>
800016ec:	01c12083          	lw	ra,28(sp)
800016f0:	01812403          	lw	s0,24(sp)
800016f4:	00a7a023          	sw	a0,0(a5)
800016f8:	0007a223          	sw	zero,4(a5)
800016fc:	01412483          	lw	s1,20(sp)
80001700:	00000513          	li	a0,0
80001704:	00000593          	li	a1,0
80001708:	02010113          	addi	sp,sp,32
8000170c:	00008067          	ret
80001710:	fff60613          	addi	a2,a2,-1
80001714:	009675b3          	and	a1,a2,s1
80001718:	06059863          	bnez	a1,80001788 <__udivmoddi4+0x2cc>
8000171c:	00412703          	lw	a4,4(sp)
80001720:	00070863          	beqz	a4,80001730 <__udivmoddi4+0x274>
80001724:	00a67633          	and	a2,a2,a0
80001728:	00c72023          	sw	a2,0(a4)
8000172c:	00072223          	sw	zero,4(a4)
80001730:	00100713          	li	a4,1
80001734:	12e48263          	beq	s1,a4,80001858 <__udivmoddi4+0x39c>
80001738:	00048513          	mv	a0,s1
8000173c:	00f12223          	sw	a5,4(sp)
80001740:	00612023          	sw	t1,0(sp)
80001744:	220000ef          	jal	ra,80001964 <__ctzsi2>
80001748:	00412783          	lw	a5,4(sp)
8000174c:	00012303          	lw	t1,0(sp)
80001750:	02000413          	li	s0,32
80001754:	40a40433          	sub	s0,s0,a0
80001758:	00050713          	mv	a4,a0
8000175c:	00879433          	sll	s0,a5,s0
80001760:	00a35533          	srl	a0,t1,a0
80001764:	00a46533          	or	a0,s0,a0
80001768:	00e7d5b3          	srl	a1,a5,a4
8000176c:	da5ff06f          	j	80001510 <__udivmoddi4+0x54>
80001770:	00100073          	ebreak
80001774:	00412703          	lw	a4,4(sp)
80001778:	0c071663          	bnez	a4,80001844 <__udivmoddi4+0x388>
8000177c:	00000513          	li	a0,0
80001780:	00000593          	li	a1,0
80001784:	d8dff06f          	j	80001510 <__udivmoddi4+0x54>
80001788:	00a12623          	sw	a0,12(sp)
8000178c:	00048513          	mv	a0,s1
80001790:	00068413          	mv	s0,a3
80001794:	00d12823          	sw	a3,16(sp)
80001798:	00f12023          	sw	a5,0(sp)
8000179c:	130000ef          	jal	ra,800018cc <__clzsi2>
800017a0:	00012703          	lw	a4,0(sp)
800017a4:	00050613          	mv	a2,a0
800017a8:	00c12023          	sw	a2,0(sp)
800017ac:	00070513          	mv	a0,a4
800017b0:	00e12423          	sw	a4,8(sp)
800017b4:	118000ef          	jal	ra,800018cc <__clzsi2>
800017b8:	00012603          	lw	a2,0(sp)
800017bc:	00c12303          	lw	t1,12(sp)
800017c0:	02000593          	li	a1,32
800017c4:	40a60633          	sub	a2,a2,a0
800017c8:	02160393          	addi	t2,a2,33
800017cc:	00812703          	lw	a4,8(sp)
800017d0:	01012683          	lw	a3,16(sp)
800017d4:	00030513          	mv	a0,t1
800017d8:	00000793          	li	a5,0
800017dc:	e4b382e3          	beq	t2,a1,80001620 <__udivmoddi4+0x164>
800017e0:	01f00313          	li	t1,31
800017e4:	0a736e63          	bltu	t1,t2,800018a0 <__udivmoddi4+0x3e4>
800017e8:	407585b3          	sub	a1,a1,t2
800017ec:	00755633          	srl	a2,a0,t2
800017f0:	00b71333          	sll	t1,a4,a1
800017f4:	007757b3          	srl	a5,a4,t2
800017f8:	00b51533          	sll	a0,a0,a1
800017fc:	00c36733          	or	a4,t1,a2
80001800:	e21ff06f          	j	80001620 <__udivmoddi4+0x164>
80001804:	00412403          	lw	s0,4(sp)
80001808:	02040463          	beqz	s0,80001830 <__udivmoddi4+0x374>
8000180c:	00068593          	mv	a1,a3
80001810:	00078513          	mv	a0,a5
80001814:	00d12223          	sw	a3,4(sp)
80001818:	00f12023          	sw	a5,0(sp)
8000181c:	c19ff0ef          	jal	ra,80001434 <__umodsi3>
80001820:	00412683          	lw	a3,4(sp)
80001824:	00012783          	lw	a5,0(sp)
80001828:	00042023          	sw	zero,0(s0)
8000182c:	00a42223          	sw	a0,4(s0)
80001830:	00068593          	mv	a1,a3
80001834:	00078513          	mv	a0,a5
80001838:	bb5ff0ef          	jal	ra,800013ec <__hidden___udivsi3>
8000183c:	00000593          	li	a1,0
80001840:	cd1ff06f          	j	80001510 <__udivmoddi4+0x54>
80001844:	00672023          	sw	t1,0(a4)
80001848:	00f72223          	sw	a5,4(a4)
8000184c:	00000513          	li	a0,0
80001850:	00000593          	li	a1,0
80001854:	cbdff06f          	j	80001510 <__udivmoddi4+0x54>
80001858:	00030513          	mv	a0,t1
8000185c:	00078593          	mv	a1,a5
80001860:	cb1ff06f          	j	80001510 <__udivmoddi4+0x54>
80001864:	00412703          	lw	a4,4(sp)
80001868:	00070863          	beqz	a4,80001878 <__udivmoddi4+0x3bc>
8000186c:	00f67633          	and	a2,a2,a5
80001870:	00a72023          	sw	a0,0(a4)
80001874:	00c72223          	sw	a2,4(a4)
80001878:	00068513          	mv	a0,a3
8000187c:	00f12023          	sw	a5,0(sp)
80001880:	0e4000ef          	jal	ra,80001964 <__ctzsi2>
80001884:	00012783          	lw	a5,0(sp)
80001888:	00000593          	li	a1,0
8000188c:	00a7d533          	srl	a0,a5,a0
80001890:	c81ff06f          	j	80001510 <__udivmoddi4+0x54>
80001894:	00000793          	li	a5,0
80001898:	00000413          	li	s0,0
8000189c:	d85ff06f          	j	80001620 <__udivmoddi4+0x164>
800018a0:	04000593          	li	a1,64
800018a4:	407585b3          	sub	a1,a1,t2
800018a8:	00160613          	addi	a2,a2,1
800018ac:	00b51433          	sll	s0,a0,a1
800018b0:	00b715b3          	sll	a1,a4,a1
800018b4:	00c55533          	srl	a0,a0,a2
800018b8:	00a5e533          	or	a0,a1,a0
800018bc:	00c75733          	srl	a4,a4,a2
800018c0:	d61ff06f          	j	80001620 <__udivmoddi4+0x164>

800018c4 <__udivdi3>:
800018c4:	00000713          	li	a4,0
800018c8:	bf5ff06f          	j	800014bc <__udivmoddi4>

800018cc <__clzsi2>:
800018cc:	ffff0637          	lui	a2,0xffff0
800018d0:	00c57633          	and	a2,a0,a2
800018d4:	00163613          	seqz	a2,a2
800018d8:	00461613          	slli	a2,a2,0x4
800018dc:	01000793          	li	a5,16
800018e0:	40c787b3          	sub	a5,a5,a2
800018e4:	00010737          	lui	a4,0x10
800018e8:	00f557b3          	srl	a5,a0,a5
800018ec:	f0070713          	addi	a4,a4,-256 # ff00 <_entry_offset+0xff00>
800018f0:	00e7f733          	and	a4,a5,a4
800018f4:	00173713          	seqz	a4,a4
800018f8:	00371713          	slli	a4,a4,0x3
800018fc:	00800693          	li	a3,8
80001900:	40e686b3          	sub	a3,a3,a4
80001904:	00d7d7b3          	srl	a5,a5,a3
80001908:	0f07f593          	andi	a1,a5,240
8000190c:	0015b593          	seqz	a1,a1
80001910:	00259593          	slli	a1,a1,0x2
80001914:	00400693          	li	a3,4
80001918:	40b686b3          	sub	a3,a3,a1
8000191c:	00d7d7b3          	srl	a5,a5,a3
80001920:	00c7f513          	andi	a0,a5,12
80001924:	00153513          	seqz	a0,a0
80001928:	00151513          	slli	a0,a0,0x1
8000192c:	00200313          	li	t1,2
80001930:	40a306b3          	sub	a3,t1,a0
80001934:	00d7d7b3          	srl	a5,a5,a3
80001938:	0017d693          	srli	a3,a5,0x1
8000193c:	0016c693          	xori	a3,a3,1
80001940:	00c70733          	add	a4,a4,a2
80001944:	0016f693          	andi	a3,a3,1
80001948:	00e585b3          	add	a1,a1,a4
8000194c:	40f30333          	sub	t1,t1,a5
80001950:	40d006b3          	neg	a3,a3
80001954:	0066f6b3          	and	a3,a3,t1
80001958:	00b50533          	add	a0,a0,a1
8000195c:	00a68533          	add	a0,a3,a0
80001960:	00008067          	ret

80001964 <__ctzsi2>:
80001964:	01051593          	slli	a1,a0,0x10
80001968:	0105d593          	srli	a1,a1,0x10
8000196c:	0015b593          	seqz	a1,a1
80001970:	00459593          	slli	a1,a1,0x4
80001974:	00b557b3          	srl	a5,a0,a1
80001978:	0ff7f613          	zext.b	a2,a5
8000197c:	00163613          	seqz	a2,a2
80001980:	00361613          	slli	a2,a2,0x3
80001984:	00c7d7b3          	srl	a5,a5,a2
80001988:	00f7f693          	andi	a3,a5,15
8000198c:	0016b693          	seqz	a3,a3
80001990:	00269693          	slli	a3,a3,0x2
80001994:	00d7d7b3          	srl	a5,a5,a3
80001998:	0037f713          	andi	a4,a5,3
8000199c:	00173713          	seqz	a4,a4
800019a0:	00171713          	slli	a4,a4,0x1
800019a4:	00e7d7b3          	srl	a5,a5,a4
800019a8:	0017d513          	srli	a0,a5,0x1
800019ac:	00b60633          	add	a2,a2,a1
800019b0:	0017f793          	andi	a5,a5,1
800019b4:	00157593          	andi	a1,a0,1
800019b8:	00200513          	li	a0,2
800019bc:	40b50533          	sub	a0,a0,a1
800019c0:	00c686b3          	add	a3,a3,a2
800019c4:	fff78793          	addi	a5,a5,-1
800019c8:	00f577b3          	and	a5,a0,a5
800019cc:	00d70533          	add	a0,a4,a3
800019d0:	00a78533          	add	a0,a5,a0
800019d4:	00008067          	ret

800019d8 <int_to_str>:
800019d8:	fc410113          	addi	sp,sp,-60
800019dc:	02112c23          	sw	ra,56(sp)
800019e0:	02812a23          	sw	s0,52(sp)
800019e4:	02912823          	sw	s1,48(sp)
800019e8:	00b12423          	sw	a1,8(sp)
800019ec:	00050713          	mv	a4,a0
800019f0:	0e054a63          	bltz	a0,80001ae4 <int_to_str+0x10c>
800019f4:	02051863          	bnez	a0,80001a24 <int_to_str+0x4c>
800019f8:	03000793          	li	a5,48
800019fc:	00f58023          	sb	a5,0(a1)
80001a00:	00812783          	lw	a5,8(sp)
80001a04:	00100593          	li	a1,1
80001a08:	00b78433          	add	s0,a5,a1
80001a0c:	00040023          	sb	zero,0(s0)
80001a10:	03812083          	lw	ra,56(sp)
80001a14:	03412403          	lw	s0,52(sp)
80001a18:	03012483          	lw	s1,48(sp)
80001a1c:	03c10113          	addi	sp,sp,60
80001a20:	00008067          	ret
80001a24:	00012623          	sw	zero,12(sp)
80001a28:	00000493          	li	s1,0
80001a2c:	00a00593          	li	a1,10
80001a30:	00070513          	mv	a0,a4
80001a34:	00e12023          	sw	a4,0(sp)
80001a38:	a31ff0ef          	jal	ra,80001468 <__modsi3>
80001a3c:	00012703          	lw	a4,0(sp)
80001a40:	03050793          	addi	a5,a0,48
80001a44:	00912223          	sw	s1,4(sp)
80001a48:	00148493          	addi	s1,s1,1
80001a4c:	0ff7f413          	zext.b	s0,a5
80001a50:	01048793          	addi	a5,s1,16
80001a54:	00070513          	mv	a0,a4
80001a58:	00278733          	add	a4,a5,sp
80001a5c:	fe870fa3          	sb	s0,-1(a4)
80001a60:	00a00593          	li	a1,10
80001a64:	981ff0ef          	jal	ra,800013e4 <__divsi3>
80001a68:	00050713          	mv	a4,a0
80001a6c:	fc0510e3          	bnez	a0,80001a2c <int_to_str+0x54>
80001a70:	00c12783          	lw	a5,12(sp)
80001a74:	00048593          	mv	a1,s1
80001a78:	02078263          	beqz	a5,80001a9c <int_to_str+0xc4>
80001a7c:	02048793          	addi	a5,s1,32
80001a80:	01010713          	addi	a4,sp,16
80001a84:	00e786b3          	add	a3,a5,a4
80001a88:	00412783          	lw	a5,4(sp)
80001a8c:	02d00413          	li	s0,45
80001a90:	00278593          	addi	a1,a5,2
80001a94:	02d00793          	li	a5,45
80001a98:	fef68023          	sb	a5,-32(a3)
80001a9c:	01058793          	addi	a5,a1,16
80001aa0:	00812683          	lw	a3,8(sp)
80001aa4:	00278733          	add	a4,a5,sp
80001aa8:	01110613          	addi	a2,sp,17
80001aac:	00c0006f          	j	80001ab8 <int_to_str+0xe0>
80001ab0:	ffe74403          	lbu	s0,-2(a4)
80001ab4:	fff70713          	addi	a4,a4,-1
80001ab8:	00868023          	sb	s0,0(a3)
80001abc:	00168693          	addi	a3,a3,1
80001ac0:	fee618e3          	bne	a2,a4,80001ab0 <int_to_str+0xd8>
80001ac4:	00812783          	lw	a5,8(sp)
80001ac8:	00b78433          	add	s0,a5,a1
80001acc:	00040023          	sb	zero,0(s0)
80001ad0:	03812083          	lw	ra,56(sp)
80001ad4:	03412403          	lw	s0,52(sp)
80001ad8:	03012483          	lw	s1,48(sp)
80001adc:	03c10113          	addi	sp,sp,60
80001ae0:	00008067          	ret
80001ae4:	00100793          	li	a5,1
80001ae8:	40a00733          	neg	a4,a0
80001aec:	00f12623          	sw	a5,12(sp)
80001af0:	f39ff06f          	j	80001a28 <int_to_str+0x50>

80001af4 <vsprintf>:
80001af4:	fac10113          	addi	sp,sp,-84
80001af8:	04812623          	sw	s0,76(sp)
80001afc:	04112823          	sw	ra,80(sp)
80001b00:	04912423          	sw	s1,72(sp)
80001b04:	0005c783          	lbu	a5,0(a1)
80001b08:	00050713          	mv	a4,a0
80001b0c:	00050413          	mv	s0,a0
80001b10:	02079063          	bnez	a5,80001b30 <vsprintf+0x3c>
80001b14:	19c0006f          	j	80001cb0 <vsprintf+0x1bc>
80001b18:	00f40023          	sb	a5,0(s0)
80001b1c:	00058493          	mv	s1,a1
80001b20:	00140413          	addi	s0,s0,1
80001b24:	0014c783          	lbu	a5,1(s1)
80001b28:	00148593          	addi	a1,s1,1
80001b2c:	04078463          	beqz	a5,80001b74 <vsprintf+0x80>
80001b30:	02500693          	li	a3,37
80001b34:	00158493          	addi	s1,a1,1
80001b38:	fed790e3          	bne	a5,a3,80001b18 <vsprintf+0x24>
80001b3c:	0015c683          	lbu	a3,1(a1)
80001b40:	07300513          	li	a0,115
80001b44:	0ea68a63          	beq	a3,a0,80001c38 <vsprintf+0x144>
80001b48:	07800513          	li	a0,120
80001b4c:	08a68463          	beq	a3,a0,80001bd4 <vsprintf+0xe0>
80001b50:	06400513          	li	a0,100
80001b54:	02a68e63          	beq	a3,a0,80001b90 <vsprintf+0x9c>
80001b58:	00f40023          	sb	a5,0(s0)
80001b5c:	0015c783          	lbu	a5,1(a1)
80001b60:	00240413          	addi	s0,s0,2
80001b64:	00148593          	addi	a1,s1,1
80001b68:	fef40fa3          	sb	a5,-1(s0)
80001b6c:	0014c783          	lbu	a5,1(s1)
80001b70:	fc0790e3          	bnez	a5,80001b30 <vsprintf+0x3c>
80001b74:	00040023          	sb	zero,0(s0)
80001b78:	05012083          	lw	ra,80(sp)
80001b7c:	40e40533          	sub	a0,s0,a4
80001b80:	04c12403          	lw	s0,76(sp)
80001b84:	04812483          	lw	s1,72(sp)
80001b88:	05410113          	addi	sp,sp,84
80001b8c:	00008067          	ret
80001b90:	00062503          	lw	a0,0(a2) # ffff0000 <_end+0x7ff53000>
80001b94:	02810593          	addi	a1,sp,40
80001b98:	00460613          	addi	a2,a2,4
80001b9c:	00e12223          	sw	a4,4(sp)
80001ba0:	00c12023          	sw	a2,0(sp)
80001ba4:	e35ff0ef          	jal	ra,800019d8 <int_to_str>
80001ba8:	02814783          	lbu	a5,40(sp)
80001bac:	00012603          	lw	a2,0(sp)
80001bb0:	00412703          	lw	a4,4(sp)
80001bb4:	f60788e3          	beqz	a5,80001b24 <vsprintf+0x30>
80001bb8:	02810693          	addi	a3,sp,40
80001bbc:	00168693          	addi	a3,a3,1
80001bc0:	00f40023          	sb	a5,0(s0)
80001bc4:	0006c783          	lbu	a5,0(a3)
80001bc8:	00140413          	addi	s0,s0,1
80001bcc:	fe0798e3          	bnez	a5,80001bbc <vsprintf+0xc8>
80001bd0:	f55ff06f          	j	80001b24 <vsprintf+0x30>
80001bd4:	00062583          	lw	a1,0(a2)
80001bd8:	00460613          	addi	a2,a2,4
80001bdc:	08058463          	beqz	a1,80001c64 <vsprintf+0x170>
80001be0:	00000313          	li	t1,0
80001be4:	00900293          	li	t0,9
80001be8:	00130513          	addi	a0,t1,1
80001bec:	02810793          	addi	a5,sp,40
80001bf0:	00f5f313          	andi	t1,a1,15
80001bf4:	00a787b3          	add	a5,a5,a0
80001bf8:	0045d593          	srli	a1,a1,0x4
80001bfc:	05730693          	addi	a3,t1,87
80001c00:	0062c463          	blt	t0,t1,80001c08 <vsprintf+0x114>
80001c04:	03030693          	addi	a3,t1,48
80001c08:	fed78fa3          	sb	a3,-1(a5)
80001c0c:	00050313          	mv	t1,a0
80001c10:	fc059ce3          	bnez	a1,80001be8 <vsprintf+0xf4>
80001c14:	00810593          	addi	a1,sp,8
80001c18:	02910313          	addi	t1,sp,41
80001c1c:	00c0006f          	j	80001c28 <vsprintf+0x134>
80001c20:	ffe7c683          	lbu	a3,-2(a5)
80001c24:	fff78793          	addi	a5,a5,-1
80001c28:	00d58023          	sb	a3,0(a1)
80001c2c:	00158593          	addi	a1,a1,1
80001c30:	fef318e3          	bne	t1,a5,80001c20 <vsprintf+0x12c>
80001c34:	03c0006f          	j	80001c70 <vsprintf+0x17c>
80001c38:	00062783          	lw	a5,0(a2)
80001c3c:	00460613          	addi	a2,a2,4
80001c40:	06078063          	beqz	a5,80001ca0 <vsprintf+0x1ac>
80001c44:	0007c683          	lbu	a3,0(a5)
80001c48:	ec068ee3          	beqz	a3,80001b24 <vsprintf+0x30>
80001c4c:	00d40023          	sb	a3,0(s0)
80001c50:	0017c683          	lbu	a3,1(a5)
80001c54:	00178793          	addi	a5,a5,1
80001c58:	00140413          	addi	s0,s0,1
80001c5c:	fe0698e3          	bnez	a3,80001c4c <vsprintf+0x158>
80001c60:	ec5ff06f          	j	80001b24 <vsprintf+0x30>
80001c64:	03000793          	li	a5,48
80001c68:	00f10423          	sb	a5,8(sp)
80001c6c:	00100513          	li	a0,1
80001c70:	04050793          	addi	a5,a0,64
80001c74:	00810693          	addi	a3,sp,8
80001c78:	00d78533          	add	a0,a5,a3
80001c7c:	fc050023          	sb	zero,-64(a0)
80001c80:	00814783          	lbu	a5,8(sp)
80001c84:	ea0780e3          	beqz	a5,80001b24 <vsprintf+0x30>
80001c88:	00168693          	addi	a3,a3,1
80001c8c:	00f40023          	sb	a5,0(s0)
80001c90:	0006c783          	lbu	a5,0(a3)
80001c94:	00140413          	addi	s0,s0,1
80001c98:	fe0798e3          	bnez	a5,80001c88 <vsprintf+0x194>
80001c9c:	e89ff06f          	j	80001b24 <vsprintf+0x30>
80001ca0:	00001797          	auipc	a5,0x1
80001ca4:	ec078793          	addi	a5,a5,-320 # 80002b60 <mainargs+0xe4>
80001ca8:	02800693          	li	a3,40
80001cac:	fa1ff06f          	j	80001c4c <vsprintf+0x158>
80001cb0:	00040023          	sb	zero,0(s0)
80001cb4:	05012083          	lw	ra,80(sp)
80001cb8:	04c12403          	lw	s0,76(sp)
80001cbc:	04812483          	lw	s1,72(sp)
80001cc0:	00000513          	li	a0,0
80001cc4:	05410113          	addi	sp,sp,84
80001cc8:	00008067          	ret

80001ccc <printf>:
80001ccc:	bdc10113          	addi	sp,sp,-1060
80001cd0:	41010313          	addi	t1,sp,1040
80001cd4:	40b12823          	sw	a1,1040(sp)
80001cd8:	40c12a23          	sw	a2,1044(sp)
80001cdc:	00050593          	mv	a1,a0
80001ce0:	00030613          	mv	a2,t1
80001ce4:	00410513          	addi	a0,sp,4
80001ce8:	40812423          	sw	s0,1032(sp)
80001cec:	40112623          	sw	ra,1036(sp)
80001cf0:	40912223          	sw	s1,1028(sp)
80001cf4:	40d12c23          	sw	a3,1048(sp)
80001cf8:	40e12e23          	sw	a4,1052(sp)
80001cfc:	42f12023          	sw	a5,1056(sp)
80001d00:	00612023          	sw	t1,0(sp)
80001d04:	df1ff0ef          	jal	ra,80001af4 <vsprintf>
80001d08:	00050413          	mv	s0,a0
80001d0c:	00414503          	lbu	a0,4(sp)
80001d10:	00050c63          	beqz	a0,80001d28 <printf+0x5c>
80001d14:	00510493          	addi	s1,sp,5
80001d18:	00148493          	addi	s1,s1,1
80001d1c:	b74ff0ef          	jal	ra,80001090 <putch>
80001d20:	fff4c503          	lbu	a0,-1(s1)
80001d24:	fe051ae3          	bnez	a0,80001d18 <printf+0x4c>
80001d28:	40c12083          	lw	ra,1036(sp)
80001d2c:	00040513          	mv	a0,s0
80001d30:	40812403          	lw	s0,1032(sp)
80001d34:	40412483          	lw	s1,1028(sp)
80001d38:	42410113          	addi	sp,sp,1060
80001d3c:	00008067          	ret

80001d40 <rand>:
80001d40:	0000f697          	auipc	a3,0xf
80001d44:	e5068693          	addi	a3,a3,-432 # 80010b90 <next>
80001d48:	0006a603          	lw	a2,0(a3)
80001d4c:	00861713          	slli	a4,a2,0x8
80001d50:	40c70733          	sub	a4,a4,a2
80001d54:	00371713          	slli	a4,a4,0x3
80001d58:	00c70733          	add	a4,a4,a2
80001d5c:	00771713          	slli	a4,a4,0x7
80001d60:	00c70733          	add	a4,a4,a2
80001d64:	00371713          	slli	a4,a4,0x3
80001d68:	40c70733          	sub	a4,a4,a2
80001d6c:	00571793          	slli	a5,a4,0x5
80001d70:	00f707b3          	add	a5,a4,a5
80001d74:	00279793          	slli	a5,a5,0x2
80001d78:	40c787b3          	sub	a5,a5,a2
80001d7c:	00279793          	slli	a5,a5,0x2
80001d80:	00003737          	lui	a4,0x3
80001d84:	00c787b3          	add	a5,a5,a2
80001d88:	03970713          	addi	a4,a4,57 # 3039 <_entry_offset+0x3039>
80001d8c:	00e787b3          	add	a5,a5,a4
80001d90:	00179513          	slli	a0,a5,0x1
80001d94:	00f6a023          	sw	a5,0(a3)
80001d98:	01155513          	srli	a0,a0,0x11
80001d9c:	00008067          	ret

80001da0 <strcmp>:
80001da0:	00054783          	lbu	a5,0(a0)
80001da4:	00079a63          	bnez	a5,80001db8 <strcmp+0x18>
80001da8:	0340006f          	j	80001ddc <strcmp+0x3c>
80001dac:	00054783          	lbu	a5,0(a0)
80001db0:	02078063          	beqz	a5,80001dd0 <strcmp+0x30>
80001db4:	00068593          	mv	a1,a3
80001db8:	0005c703          	lbu	a4,0(a1)
80001dbc:	00150513          	addi	a0,a0,1
80001dc0:	00158693          	addi	a3,a1,1
80001dc4:	fef704e3          	beq	a4,a5,80001dac <strcmp+0xc>
80001dc8:	40e78533          	sub	a0,a5,a4
80001dcc:	00008067          	ret
80001dd0:	0015c703          	lbu	a4,1(a1)
80001dd4:	40e78533          	sub	a0,a5,a4
80001dd8:	00008067          	ret
80001ddc:	0005c703          	lbu	a4,0(a1)
80001de0:	fe9ff06f          	j	80001dc8 <strcmp+0x28>

80001de4 <strncmp>:
80001de4:	02060863          	beqz	a2,80001e14 <strncmp+0x30>
80001de8:	00c58633          	add	a2,a1,a2
80001dec:	0100006f          	j	80001dfc <strncmp+0x18>
80001df0:	00150513          	addi	a0,a0,1
80001df4:	00e79c63          	bne	a5,a4,80001e0c <strncmp+0x28>
80001df8:	00c58e63          	beq	a1,a2,80001e14 <strncmp+0x30>
80001dfc:	00054783          	lbu	a5,0(a0)
80001e00:	00158593          	addi	a1,a1,1
80001e04:	fff5c703          	lbu	a4,-1(a1)
80001e08:	fe0794e3          	bnez	a5,80001df0 <strncmp+0xc>
80001e0c:	40e78533          	sub	a0,a5,a4
80001e10:	00008067          	ret
80001e14:	00000513          	li	a0,0
80001e18:	00008067          	ret

80001e1c <memcpy>:
80001e1c:	02060063          	beqz	a2,80001e3c <memcpy+0x20>
80001e20:	00c50633          	add	a2,a0,a2
80001e24:	00050793          	mv	a5,a0
80001e28:	0005c703          	lbu	a4,0(a1)
80001e2c:	00178793          	addi	a5,a5,1
80001e30:	00158593          	addi	a1,a1,1
80001e34:	fee78fa3          	sb	a4,-1(a5)
80001e38:	fec798e3          	bne	a5,a2,80001e28 <memcpy+0xc>
80001e3c:	00008067          	ret
80001e40:	7355                	.2byte	0x7355
80001e42:	6761                	.2byte	0x6761
80001e44:	3a65                	.2byte	0x3a65
80001e46:	6d20                	.2byte	0x6d20
80001e48:	6b61                	.2byte	0x6b61
80001e4a:	2065                	.2byte	0x2065
80001e4c:	7572                	.2byte	0x7572
80001e4e:	206e                	.2byte	0x206e
80001e50:	616d                	.2byte	0x616d
80001e52:	6e69                	.2byte	0x6e69
80001e54:	7261                	.2byte	0x7261
80001e56:	2a3d7367          	.4byte	0x2a3d7367
80001e5a:	000a                	.2byte	0xa
80001e5c:	2020                	.2byte	0x2020
80001e5e:	6325                	.2byte	0x6325
80001e60:	203a                	.2byte	0x203a
80001e62:	7325                	.2byte	0x7325
80001e64:	000a                	.2byte	0xa
80001e66:	0000                	.2byte	0x0
80001e68:	e22c                	.2byte	0xe22c
80001e6a:	ffff                	.2byte	0xffff
80001e6c:	e1e8                	.2byte	0xe1e8
80001e6e:	ffff                	.2byte	0xffff
80001e70:	e1e8                	.2byte	0xe1e8
80001e72:	ffff                	.2byte	0xffff
80001e74:	e25c                	.2byte	0xe25c
80001e76:	ffff                	.2byte	0xffff
80001e78:	e1e8                	.2byte	0xe1e8
80001e7a:	ffff                	.2byte	0xffff
80001e7c:	e1e8                	.2byte	0xe1e8
80001e7e:	ffff                	.2byte	0xffff
80001e80:	e1e8                	.2byte	0xe1e8
80001e82:	ffff                	.2byte	0xffff
80001e84:	e278                	.2byte	0xe278
80001e86:	ffff                	.2byte	0xffff
80001e88:	e290                	.2byte	0xe290
80001e8a:	ffff                	.2byte	0xffff
80001e8c:	e1e8                	.2byte	0xe1e8
80001e8e:	ffff                	.2byte	0xffff
80001e90:	e2b8                	.2byte	0xe2b8
80001e92:	ffff                	.2byte	0xffff
80001e94:	e1e8                	.2byte	0xe1e8
80001e96:	ffff                	.2byte	0xffff
80001e98:	e2d4                	.2byte	0xe2d4
80001e9a:	ffff                	.2byte	0xffff
80001e9c:	e1e8                	.2byte	0xe1e8
80001e9e:	ffff                	.2byte	0xffff
80001ea0:	e1e8                	.2byte	0xe1e8
80001ea2:	ffff                	.2byte	0xffff
80001ea4:	e2f4                	.2byte	0xe2f4
80001ea6:	ffff                	.2byte	0xffff
80001ea8:	e1e8                	.2byte	0xe1e8
80001eaa:	ffff                	.2byte	0xffff
80001eac:	e1e8                	.2byte	0xe1e8
80001eae:	ffff                	.2byte	0xffff
80001eb0:	e1e8                	.2byte	0xe1e8
80001eb2:	ffff                	.2byte	0xffff
80001eb4:	e32c                	.2byte	0xe32c
80001eb6:	ffff                	.2byte	0xffff
80001eb8:	e1e8                	.2byte	0xe1e8
80001eba:	ffff                	.2byte	0xffff
80001ebc:	e348                	.2byte	0xe348
80001ebe:	ffff                	.2byte	0xffff
80001ec0:	6964                	.2byte	0x6964
80001ec2:	616c7073          	.4byte	0x616c7073
80001ec6:	2079                	.2byte	0x2079
80001ec8:	6874                	.2byte	0x6874
80001eca:	7369                	.2byte	0x7369
80001ecc:	6820                	.2byte	0x6820
80001ece:	6c65                	.2byte	0x6c65
80001ed0:	2070                	.2byte	0x2070
80001ed2:	656d                	.2byte	0x656d
80001ed4:	67617373          	.4byte	0x67617373
80001ed8:	0065                	.2byte	0x65
80001eda:	0000                	.2byte	0x0
80001edc:	7561                	.2byte	0x7561
80001ede:	6964                	.2byte	0x6964
80001ee0:	6574206f          	j	80044d36 <vmem+0x33f9e>
80001ee4:	00007473          	.4byte	0x7473
80001ee8:	6e616373          	.4byte	0x6e616373
80001eec:	6420                	.2byte	0x6420
80001eee:	7665                	.2byte	0x7665
80001ef0:	6369                	.2byte	0x6369
80001ef2:	7365                	.2byte	0x7365
80001ef4:	0000                	.2byte	0x0
80001ef6:	0000                	.2byte	0x0
80001ef8:	6568                	.2byte	0x6568
80001efa:	6c6c                	.2byte	0x6c6c
80001efc:	0000006f          	j	80001efc <memcpy+0xe0>
80001f00:	6e69                	.2byte	0x6e69
80001f02:	6574                	.2byte	0x6574
80001f04:	7272                	.2byte	0x7272
80001f06:	7075                	.2byte	0x7075
80001f08:	2f74                	.2byte	0x2f74
80001f0a:	6979                	.2byte	0x6979
80001f0c:	6c65                	.2byte	0x6c65
80001f0e:	2064                	.2byte	0x2064
80001f10:	6574                	.2byte	0x6574
80001f12:	00007473          	.4byte	0x7473
80001f16:	0000                	.2byte	0x0
80001f18:	6572                	.2byte	0x6572
80001f1a:	6461                	.2byte	0x6461
80001f1c:	2079656b          	.4byte	0x2079656b
80001f20:	6574                	.2byte	0x6574
80001f22:	00007473          	.4byte	0x7473
80001f26:	0000                	.2byte	0x0
80001f28:	756d                	.2byte	0x756d
80001f2a:	746c                	.2byte	0x746c
80001f2c:	7069                	.2byte	0x7069
80001f2e:	6f72                	.2byte	0x6f72
80001f30:	73736563          	bltu	t1,s7,8000265a <dy.0+0x62>
80001f34:	7420726f          	jal	tp,80009676 <audio_payload+0x6b0e>
80001f38:	7365                	.2byte	0x7365
80001f3a:	0074                	.2byte	0x74
80001f3c:	3878                	.2byte	0x3878
80001f3e:	2036                	.2byte	0x2036
80001f40:	6976                	.2byte	0x6976
80001f42:	7472                	.2byte	0x7472
80001f44:	6175                	.2byte	0x6175
80001f46:	206c                	.2byte	0x206c
80001f48:	656d                	.2byte	0x656d
80001f4a:	6f6d                	.2byte	0x6f6d
80001f4c:	7972                	.2byte	0x7972
80001f4e:	7420                	.2byte	0x7420
80001f50:	7365                	.2byte	0x7365
80001f52:	0074                	.2byte	0x74
80001f54:	6572                	.2byte	0x6572
80001f56:	6c61                	.2byte	0x6c61
80001f58:	742d                	.2byte	0x742d
80001f5a:	6d69                	.2byte	0x6d69
80001f5c:	2065                	.2byte	0x2065
80001f5e:	636f6c63          	bltu	t5,s6,80002596 <tests+0x61a>
80001f62:	6574206b          	.4byte	0x6574206b
80001f66:	00007473          	.4byte	0x7473
80001f6a:	0000                	.2byte	0x0
80001f6c:	6964                	.2byte	0x6964
80001f6e:	616c7073          	.4byte	0x616c7073
80001f72:	2079                	.2byte	0x2079
80001f74:	6574                	.2byte	0x6574
80001f76:	00007473          	.4byte	0x7473
	...

80001f7c <tests>:
	...
8000209c:	80001ec0 00000000 00000000 00000000     ................
	...
80002100:	80001edc 00000000 00000000 80001ee8     ................
	...
8000211c:	80001ef8 80001f00 00000000 80001f18     ................
8000212c:	00000000 80001f28 00000000 00000000     ....(...........
8000213c:	80001f3c 00000000 00000000 00000000     <...............
8000214c:	80001f54 00000000 80001f6c 00000000     T.......l.......
	...
8000237c:	63736972 65323376 63706e2d 00000000     riscv32e-npc....
8000238c:	4e524157 3a474e49 20732520 73656f64     WARNING: %s does
8000239c:	746f6e20 70757320 74726f70 64756120      not support aud
800023ac:	000a6f69 65726c41 20796461 79616c70     io..Already play
800023bc:	2f642520 62206425 73657479 20666f20      %d/%d bytes of 
800023cc:	61746164 0000000a 252d6425 64252d64     data....%d-%d-%d
800023dc:	32302520 30253a64 253a6432 20643230      %02d:%02d:%02d 
800023ec:	20544d47 00000028 73206425 6e6f6365     GMT (...%d secon
800023fc:	0a2e2964 00000000 73206425 6e6f6365     d)......%d secon
8000240c:	2e297364 0000000a 70616568 5b203d20     ds).....heap = [
8000241c:	78383025 3025202c 0a297838 00000000     %08x, %08x).....
8000242c:	75706e49 65642074 65636976 73657420     Input device tes
8000243c:	6b732074 65707069 000a2e64 706f6f4c     t skipped...Loop
8000244c:	5e303120 69742037 6520656d 7370616c      10^7 time elaps
8000245c:	25203a65 736d2064 0000000a 65726353     e: %d ms....Scre
8000246c:	73206e65 3a657a69 20642520 64252078     en size: %d x %d
8000247c:	0000000a 726f7453 3a656761 20642520     ....Storage: %d 
8000248c:	636f6c62 6f20736b 64252066 7a697320     blocks of %d siz
8000249c:	53202e65 20776f68 73726966 31352074     e. Show first 51
800024ac:	79622032 0a736574 00000000 78323025     2 bytes.....%02x
800024bc:	78323025 00000020 74736554 646e4520     %02x ...Test End
800024cc:	00000a21 50204d41 63696e61 0000203a     !...AM Panic: ..
800024dc:	61686e55 656c646e 76652064 00746e65     Unhandled event.
800024ec:	2f204020 746f6f72 7973792f 6f772d78      @ /root/ysyx-wo
800024fc:	65626b72 2f68636e 6b2d6d61 656e7265     rkbench/am-kerne
8000250c:	742f736c 73747365 2d6d612f 74736574     ls/tests/am-test
8000251c:	72732f73 65742f63 2f737473 72746e69     s/src/tests/intr
8000252c:	313a632e 0a202032 00000000 6c6c6548     .c:12  .....Hell
8000253c:	41202c6f 6f57204d 20646c72 69722040     o, AM World @ ri
8000254c:	33766373 000a6532 20742020 6974203d     scv32e..  t = ti
8000255c:	2c72656d 3d206420 76656420 2c656369     mer, d = device,
8000256c:	3d207920 65697920 000a646c 6f6f722f      y = yield../roo
8000257c:	73792f74 772d7879 626b726f 68636e65     t/ysyx-workbench
8000258c:	2d6d612f 6e72656b 2f736c65 74736574     /am-kernels/test
8000259c:	6d612f73 7365742d 732f7374 742f6372     s/am-tests/src/t
800025ac:	73747365 6469762f 632e6f65 00000000     ests/video.c....
800025bc:	65737341 6f697472 6166206e 61206c69     Assertion fail a
800025cc:	73252074 0a64253a 00000000 203a6425     t %s:%d.....%d: 
800025dc:	20535046 6425203d 0000000a              FPS = %d....

800025e8 <dx.1>:
800025e8:	00000000 00000001 00000000 ffffffff     ................

800025f8 <dy.0>:
800025f8:	00000001 00000000 ffffffff 00000000     ................
80002608:	20797254 70206f74 73736572 796e6120     Try to press any
80002618:	79656b20 61752820 6f207472 656b2072      key (uart or ke
80002628:	616f6279 2e296472 000a2e2e 20746f47     yboard).....Got 
80002638:	72617528 203a2974 28206325 0a296425     (uart): %c (%d).
80002648:	00000000 20746f47 626b2820 203a2964     ....Got  (kbd): 
80002658:	28207325 20296425 000a7325 41435345     %s (%d) %s..ESCA
80002668:	00004550 00003146 00003246 00003346     PE..F1..F2..F3..
80002678:	00003446 00003546 00003646 00003746     F4..F5..F6..F7..
80002688:	00003846 00003946 00303146 00313146     F8..F9..F10.F11.
80002698:	00323146 56415247 00000045 00000031     F12.GRAVE...1...
800026a8:	00000032 00000033 00000034 00000035     2...3...4...5...
800026b8:	00000036 00000037 00000038 00000039     6...7...8...9...
800026c8:	00000030 554e494d 00000053 41555145     0...MINUS...EQUA
800026d8:	0000534c 4b434142 43415053 00000045     LS..BACKSPACE...
800026e8:	00424154 00000051 00000057 00000052     TAB.Q...W...R...
800026f8:	00000059 00000055 00000049 0000004f     Y...U...I...O...
80002708:	00000050 5446454c 43415242 0054454b     P...LEFTBRACKET.
80002718:	48474952 41524254 54454b43 00000000     RIGHTBRACKET....
80002728:	4b434142 53414c53 00000048 53504143     BACKSLASH...CAPS
80002738:	4b434f4c 00000000 00000044 00000046     LOCK....D...F...
80002748:	00000047 0000004a 0000004b 494d4553     G...J...K...SEMI
80002758:	4f4c4f43 0000004e 534f5041 504f5254     COLON...APOSTROP
80002768:	00004548 55544552 00004e52 4948534c     HE..RETURN..LSHI
80002778:	00005446 0000005a 00000058 00000043     FT..Z...X...C...
80002788:	00000056 00000042 0000004d 4d4d4f43     V...B...M...COMM
80002798:	00000041 49524550 0000444f 49485352     A...PERIOD..RSHI
800027a8:	00005446 5254434c 0000004c 4c505041     FT..LCTRL...APPL
800027b8:	54414349 004e4f49 544c414c 00000000     ICATION.LALT....
800027c8:	544c4152 00000000 52544352 0000004c     RALT....RCTRL...
800027d8:	5446454c 00000000 48474952 00000054     LEFT....RIGHT...
800027e8:	45534e49 00005452 454c4544 00004554     INSERT..DELETE..
800027f8:	454d4f48 00000000 00444e45 45474150     HOME....END.PAGE
80002808:	00005055 45474150 4e574f44 00000000     UP..PAGEDOWN....

80002818 <names>:
80002818:	00000000 80002664 8000266c 80002670     ....d&..l&..p&..
80002828:	80002674 80002678 8000267c 80002680     t&..x&..|&...&..
80002838:	80002684 80002688 8000268c 80002690     .&...&...&...&..
80002848:	80002694 80002698 8000269c 800026a4     .&...&...&...&..
80002858:	800026a8 800026ac 800026b0 800026b4     .&...&...&...&..
80002868:	800026b8 800026bc 800026c0 800026c4     .&...&...&...&..
80002878:	800026c8 800026cc 800026d4 800026dc     .&...&...&...&..
80002888:	800026e8 800026ec 800026f0 800026e4     .&...&...&...&..
80002898:	800026f4 800027e4 800026f8 800026fc     .&...'...&...&..
800028a8:	80002700 80002704 80002708 8000270c     .'...'...'...'..
800028b8:	80002718 80002728 80002734 80002798     .'..('..4'...'..
800028c8:	800026d0 80002740 80002744 80002748     .&..@'..D'..H'..
800028d8:	80002730 8000274c 80002750 800027b0     0'..L'..P'...'..
800028e8:	80002754 80002760 8000276c 80002774     T'..`'..l'..t'..
800028f8:	8000277c 80002780 80002784 80002788     |'...'...'...'..
80002908:	8000278c 8000275c 80002790 80002794     .'..\'...'...'..
80002918:	8000279c 8000272c 800027a4 800027ac     .'..,'...'...'..
80002928:	800027b4 800027c0 800026e0 800027c8     .'...'...&...'..
80002938:	800027d0 80002808 80002810 800027d8     .'...(...(...'..
80002948:	800027e0 800027e8 800027f0 800027f8     .'...'...'...'..
80002958:	80002800 80002804 8000280c 6165725b     .(...(...(..[rea
80002968:	61662064 005d6c69 6972775b 66206574     d fail].[write f
80002978:	5d6c6961 00000000 3d3d3d3d 746e6920     ail]....==== int
80002988:	75727265 28207470 20297325 3d3d3d20     errupt (%s)  ===
80002998:	00000a3d 203a4650 25207825 25732573     =...PF: %x %s%s%
800029a8:	00000a73 00206425 6f6f722f 73792f74     s...%d ./root/ys
800029b8:	772d7879 626b726f 68636e65 2d6d612f     yx-workbench/am-
800029c8:	6e72656b 2f736c65 74736574 6d612f73     kernels/tests/am
800029d8:	7365742d 732f7374 742f6372 73747365     -tests/src/tests
800029e8:	2e6d762f 00000063 00363878 63736972     /vm.c...x86.risc
800029f8:	65323376 00000000 6974616e 00006576     v32e....native..
80002a08:	20746f4e 70707573 6574726f 72612064     Not supported ar
80002a18:	74696863 75746365 0a2e6572 00000000     chitecture......
80002a28:	746f7250 65746365 64612064 73657264     Protected addres
80002a38:	70732073 3a656361 70255b20 7025202c     s space: [%p, %p
80002a48:	00000a29 65646f43 706f6320 20646569     )...Code copied 
80002a58:	25206f74 70282070 69737968 206c6163     to %p (physical 
80002a68:	20297025 63657865 0a657475 00000000     %p) execute.....
80002a78:	00006425                                %d..

80002a7c <mainargs>:
80002a7c:	20656854 65736e69 612d7472 72206772     The insert-arg r
80002a8c:	20656c75 4d206e69 66656b61 20656c69     ule in Makefile 
80002a9c:	6c6c6977 736e6920 20747265 6e69616d     will insert main
80002aac:	73677261 72656820 00002e65 00000000     args here.......
80002abc:	65636361 6e207373 78656e6f 20747369     access nonexist 
80002acc:	69676572 72657473 00000000 2f204020     register.... @ /
80002adc:	746f6f72 7973792f 6f772d78 65626b72     root/ysyx-workbe
80002aec:	2f68636e 74736261 74636172 63616d2d     nch/abstract-mac
80002afc:	656e6968 2f6d612f 2f637273 63736972     hine/am/src/risc
80002b0c:	706e2f76 6f692f63 3a632e65 20203432     v/npc/ioe.c:24  
80002b1c:	0000000a 6f6f722f 73792f74 772d7879     ..../root/ysyx-w
80002b2c:	626b726f 68636e65 7362612f 63617274     orkbench/abstrac
80002b3c:	616d2d74 6e696863 6d612f65 6372732f     t-machine/am/src
80002b4c:	7369722f 6e2f7663 632f6370 632e6574     /riscv/npc/cte.c
80002b5c:	00000000 6c756e28                        ....(null).
